(dp0
S'std'
p1
cnumpy.core.multiarray
_reconstruct
p2
(cnumpy
ndarray
p3
(I0
tp4
S'b'
p5
tp6
Rp7
(I1
(I3
tp8
cnumpy
dtype
p9
(S'f4'
p10
I0
I1
tp11
Rp12
(I3
S'<'
p13
NNNI-1
I-1
I0
tp14
bI00
S'Z@\x90B\xaca\x91B\x06\xcf\x8bB'
p15
tp16
bsS'trainAnnot'
p17
(lp18
S'/home/zhengxiawu/data/CamVid/trainannot/0001TP_006690.png'
p19
aS'/home/zhengxiawu/data/CamVid/trainannot/0001TP_006720.png'
p20
aS'/home/zhengxiawu/data/CamVid/trainannot/0001TP_006750.png'
p21
aS'/home/zhengxiawu/data/CamVid/trainannot/0001TP_006780.png'
p22
aS'/home/zhengxiawu/data/CamVid/trainannot/0001TP_006810.png'
p23
aS'/home/zhengxiawu/data/CamVid/trainannot/0001TP_006840.png'
p24
aS'/home/zhengxiawu/data/CamVid/trainannot/0001TP_006870.png'
p25
aS'/home/zhengxiawu/data/CamVid/trainannot/0001TP_006900.png'
p26
aS'/home/zhengxiawu/data/CamVid/trainannot/0001TP_006930.png'
p27
aS'/home/zhengxiawu/data/CamVid/trainannot/0001TP_006960.png'
p28
aS'/home/zhengxiawu/data/CamVid/trainannot/0001TP_006990.png'
p29
aS'/home/zhengxiawu/data/CamVid/trainannot/0001TP_007020.png'
p30
aS'/home/zhengxiawu/data/CamVid/trainannot/0001TP_007050.png'
p31
aS'/home/zhengxiawu/data/CamVid/trainannot/0001TP_007080.png'
p32
aS'/home/zhengxiawu/data/CamVid/trainannot/0001TP_007110.png'
p33
aS'/home/zhengxiawu/data/CamVid/trainannot/0001TP_007140.png'
p34
aS'/home/zhengxiawu/data/CamVid/trainannot/0001TP_007170.png'
p35
aS'/home/zhengxiawu/data/CamVid/trainannot/0001TP_007200.png'
p36
aS'/home/zhengxiawu/data/CamVid/trainannot/0001TP_007230.png'
p37
aS'/home/zhengxiawu/data/CamVid/trainannot/0001TP_007260.png'
p38
aS'/home/zhengxiawu/data/CamVid/trainannot/0001TP_007290.png'
p39
aS'/home/zhengxiawu/data/CamVid/trainannot/0001TP_007320.png'
p40
aS'/home/zhengxiawu/data/CamVid/trainannot/0001TP_007350.png'
p41
aS'/home/zhengxiawu/data/CamVid/trainannot/0001TP_007380.png'
p42
aS'/home/zhengxiawu/data/CamVid/trainannot/0001TP_007410.png'
p43
aS'/home/zhengxiawu/data/CamVid/trainannot/0001TP_007440.png'
p44
aS'/home/zhengxiawu/data/CamVid/trainannot/0001TP_007470.png'
p45
aS'/home/zhengxiawu/data/CamVid/trainannot/0001TP_007500.png'
p46
aS'/home/zhengxiawu/data/CamVid/trainannot/0001TP_007530.png'
p47
aS'/home/zhengxiawu/data/CamVid/trainannot/0001TP_007560.png'
p48
aS'/home/zhengxiawu/data/CamVid/trainannot/0001TP_007590.png'
p49
aS'/home/zhengxiawu/data/CamVid/trainannot/0001TP_007620.png'
p50
aS'/home/zhengxiawu/data/CamVid/trainannot/0001TP_007650.png'
p51
aS'/home/zhengxiawu/data/CamVid/trainannot/0001TP_007680.png'
p52
aS'/home/zhengxiawu/data/CamVid/trainannot/0001TP_007710.png'
p53
aS'/home/zhengxiawu/data/CamVid/trainannot/0001TP_007740.png'
p54
aS'/home/zhengxiawu/data/CamVid/trainannot/0001TP_007770.png'
p55
aS'/home/zhengxiawu/data/CamVid/trainannot/0001TP_007800.png'
p56
aS'/home/zhengxiawu/data/CamVid/trainannot/0001TP_007830.png'
p57
aS'/home/zhengxiawu/data/CamVid/trainannot/0001TP_007860.png'
p58
aS'/home/zhengxiawu/data/CamVid/trainannot/0001TP_007890.png'
p59
aS'/home/zhengxiawu/data/CamVid/trainannot/0001TP_007920.png'
p60
aS'/home/zhengxiawu/data/CamVid/trainannot/0001TP_007950.png'
p61
aS'/home/zhengxiawu/data/CamVid/trainannot/0001TP_007980.png'
p62
aS'/home/zhengxiawu/data/CamVid/trainannot/0001TP_008010.png'
p63
aS'/home/zhengxiawu/data/CamVid/trainannot/0001TP_008040.png'
p64
aS'/home/zhengxiawu/data/CamVid/trainannot/0001TP_008070.png'
p65
aS'/home/zhengxiawu/data/CamVid/trainannot/0001TP_008100.png'
p66
aS'/home/zhengxiawu/data/CamVid/trainannot/0001TP_008130.png'
p67
aS'/home/zhengxiawu/data/CamVid/trainannot/0001TP_008160.png'
p68
aS'/home/zhengxiawu/data/CamVid/trainannot/0001TP_008190.png'
p69
aS'/home/zhengxiawu/data/CamVid/trainannot/0001TP_008220.png'
p70
aS'/home/zhengxiawu/data/CamVid/trainannot/0001TP_008250.png'
p71
aS'/home/zhengxiawu/data/CamVid/trainannot/0001TP_008280.png'
p72
aS'/home/zhengxiawu/data/CamVid/trainannot/0001TP_008310.png'
p73
aS'/home/zhengxiawu/data/CamVid/trainannot/0001TP_008340.png'
p74
aS'/home/zhengxiawu/data/CamVid/trainannot/0001TP_008370.png'
p75
aS'/home/zhengxiawu/data/CamVid/trainannot/0001TP_008400.png'
p76
aS'/home/zhengxiawu/data/CamVid/trainannot/0001TP_008430.png'
p77
aS'/home/zhengxiawu/data/CamVid/trainannot/0001TP_008460.png'
p78
aS'/home/zhengxiawu/data/CamVid/trainannot/0001TP_008490.png'
p79
aS'/home/zhengxiawu/data/CamVid/trainannot/0001TP_008520.png'
p80
aS'/home/zhengxiawu/data/CamVid/trainannot/0006R0_f00930.png'
p81
aS'/home/zhengxiawu/data/CamVid/trainannot/0006R0_f00960.png'
p82
aS'/home/zhengxiawu/data/CamVid/trainannot/0006R0_f00990.png'
p83
aS'/home/zhengxiawu/data/CamVid/trainannot/0006R0_f01020.png'
p84
aS'/home/zhengxiawu/data/CamVid/trainannot/0006R0_f01050.png'
p85
aS'/home/zhengxiawu/data/CamVid/trainannot/0006R0_f01080.png'
p86
aS'/home/zhengxiawu/data/CamVid/trainannot/0006R0_f01110.png'
p87
aS'/home/zhengxiawu/data/CamVid/trainannot/0006R0_f01140.png'
p88
aS'/home/zhengxiawu/data/CamVid/trainannot/0006R0_f01170.png'
p89
aS'/home/zhengxiawu/data/CamVid/trainannot/0006R0_f01200.png'
p90
aS'/home/zhengxiawu/data/CamVid/trainannot/0006R0_f01230.png'
p91
aS'/home/zhengxiawu/data/CamVid/trainannot/0006R0_f01260.png'
p92
aS'/home/zhengxiawu/data/CamVid/trainannot/0006R0_f01290.png'
p93
aS'/home/zhengxiawu/data/CamVid/trainannot/0006R0_f01320.png'
p94
aS'/home/zhengxiawu/data/CamVid/trainannot/0006R0_f01350.png'
p95
aS'/home/zhengxiawu/data/CamVid/trainannot/0006R0_f01380.png'
p96
aS'/home/zhengxiawu/data/CamVid/trainannot/0006R0_f01410.png'
p97
aS'/home/zhengxiawu/data/CamVid/trainannot/0006R0_f01440.png'
p98
aS'/home/zhengxiawu/data/CamVid/trainannot/0006R0_f01470.png'
p99
aS'/home/zhengxiawu/data/CamVid/trainannot/0006R0_f01500.png'
p100
aS'/home/zhengxiawu/data/CamVid/trainannot/0006R0_f01530.png'
p101
aS'/home/zhengxiawu/data/CamVid/trainannot/0006R0_f01560.png'
p102
aS'/home/zhengxiawu/data/CamVid/trainannot/0006R0_f01590.png'
p103
aS'/home/zhengxiawu/data/CamVid/trainannot/0006R0_f01620.png'
p104
aS'/home/zhengxiawu/data/CamVid/trainannot/0006R0_f01650.png'
p105
aS'/home/zhengxiawu/data/CamVid/trainannot/0006R0_f01680.png'
p106
aS'/home/zhengxiawu/data/CamVid/trainannot/0006R0_f01710.png'
p107
aS'/home/zhengxiawu/data/CamVid/trainannot/0006R0_f01740.png'
p108
aS'/home/zhengxiawu/data/CamVid/trainannot/0006R0_f01770.png'
p109
aS'/home/zhengxiawu/data/CamVid/trainannot/0006R0_f01800.png'
p110
aS'/home/zhengxiawu/data/CamVid/trainannot/0006R0_f01830.png'
p111
aS'/home/zhengxiawu/data/CamVid/trainannot/0006R0_f01860.png'
p112
aS'/home/zhengxiawu/data/CamVid/trainannot/0006R0_f01890.png'
p113
aS'/home/zhengxiawu/data/CamVid/trainannot/0006R0_f01920.png'
p114
aS'/home/zhengxiawu/data/CamVid/trainannot/0006R0_f01950.png'
p115
aS'/home/zhengxiawu/data/CamVid/trainannot/0006R0_f01980.png'
p116
aS'/home/zhengxiawu/data/CamVid/trainannot/0006R0_f02010.png'
p117
aS'/home/zhengxiawu/data/CamVid/trainannot/0006R0_f02040.png'
p118
aS'/home/zhengxiawu/data/CamVid/trainannot/0006R0_f02070.png'
p119
aS'/home/zhengxiawu/data/CamVid/trainannot/0006R0_f02100.png'
p120
aS'/home/zhengxiawu/data/CamVid/trainannot/0006R0_f02130.png'
p121
aS'/home/zhengxiawu/data/CamVid/trainannot/0006R0_f02160.png'
p122
aS'/home/zhengxiawu/data/CamVid/trainannot/0006R0_f02190.png'
p123
aS'/home/zhengxiawu/data/CamVid/trainannot/0006R0_f02220.png'
p124
aS'/home/zhengxiawu/data/CamVid/trainannot/0006R0_f02250.png'
p125
aS'/home/zhengxiawu/data/CamVid/trainannot/0006R0_f02280.png'
p126
aS'/home/zhengxiawu/data/CamVid/trainannot/0006R0_f02310.png'
p127
aS'/home/zhengxiawu/data/CamVid/trainannot/0006R0_f02340.png'
p128
aS'/home/zhengxiawu/data/CamVid/trainannot/0006R0_f02370.png'
p129
aS'/home/zhengxiawu/data/CamVid/trainannot/0006R0_f02400.png'
p130
aS'/home/zhengxiawu/data/CamVid/trainannot/0006R0_f02430.png'
p131
aS'/home/zhengxiawu/data/CamVid/trainannot/0006R0_f02460.png'
p132
aS'/home/zhengxiawu/data/CamVid/trainannot/0006R0_f02490.png'
p133
aS'/home/zhengxiawu/data/CamVid/trainannot/0006R0_f02520.png'
p134
aS'/home/zhengxiawu/data/CamVid/trainannot/0006R0_f02550.png'
p135
aS'/home/zhengxiawu/data/CamVid/trainannot/0006R0_f02580.png'
p136
aS'/home/zhengxiawu/data/CamVid/trainannot/0006R0_f02610.png'
p137
aS'/home/zhengxiawu/data/CamVid/trainannot/0006R0_f02640.png'
p138
aS'/home/zhengxiawu/data/CamVid/trainannot/0006R0_f02670.png'
p139
aS'/home/zhengxiawu/data/CamVid/trainannot/0006R0_f02700.png'
p140
aS'/home/zhengxiawu/data/CamVid/trainannot/0006R0_f02730.png'
p141
aS'/home/zhengxiawu/data/CamVid/trainannot/0006R0_f02760.png'
p142
aS'/home/zhengxiawu/data/CamVid/trainannot/0006R0_f02790.png'
p143
aS'/home/zhengxiawu/data/CamVid/trainannot/0006R0_f02820.png'
p144
aS'/home/zhengxiawu/data/CamVid/trainannot/0006R0_f02850.png'
p145
aS'/home/zhengxiawu/data/CamVid/trainannot/0006R0_f02880.png'
p146
aS'/home/zhengxiawu/data/CamVid/trainannot/0006R0_f02910.png'
p147
aS'/home/zhengxiawu/data/CamVid/trainannot/0006R0_f02940.png'
p148
aS'/home/zhengxiawu/data/CamVid/trainannot/0006R0_f02970.png'
p149
aS'/home/zhengxiawu/data/CamVid/trainannot/0006R0_f03000.png'
p150
aS'/home/zhengxiawu/data/CamVid/trainannot/0006R0_f03030.png'
p151
aS'/home/zhengxiawu/data/CamVid/trainannot/0006R0_f03060.png'
p152
aS'/home/zhengxiawu/data/CamVid/trainannot/0006R0_f03090.png'
p153
aS'/home/zhengxiawu/data/CamVid/trainannot/0006R0_f03120.png'
p154
aS'/home/zhengxiawu/data/CamVid/trainannot/0006R0_f03150.png'
p155
aS'/home/zhengxiawu/data/CamVid/trainannot/0006R0_f03180.png'
p156
aS'/home/zhengxiawu/data/CamVid/trainannot/0006R0_f03210.png'
p157
aS'/home/zhengxiawu/data/CamVid/trainannot/0006R0_f03240.png'
p158
aS'/home/zhengxiawu/data/CamVid/trainannot/0006R0_f03270.png'
p159
aS'/home/zhengxiawu/data/CamVid/trainannot/0006R0_f03300.png'
p160
aS'/home/zhengxiawu/data/CamVid/trainannot/0006R0_f03330.png'
p161
aS'/home/zhengxiawu/data/CamVid/trainannot/0006R0_f03360.png'
p162
aS'/home/zhengxiawu/data/CamVid/trainannot/0006R0_f03390.png'
p163
aS'/home/zhengxiawu/data/CamVid/trainannot/0006R0_f03420.png'
p164
aS'/home/zhengxiawu/data/CamVid/trainannot/0006R0_f03450.png'
p165
aS'/home/zhengxiawu/data/CamVid/trainannot/0006R0_f03480.png'
p166
aS'/home/zhengxiawu/data/CamVid/trainannot/0006R0_f03510.png'
p167
aS'/home/zhengxiawu/data/CamVid/trainannot/0006R0_f03540.png'
p168
aS'/home/zhengxiawu/data/CamVid/trainannot/0006R0_f03570.png'
p169
aS'/home/zhengxiawu/data/CamVid/trainannot/0006R0_f03600.png'
p170
aS'/home/zhengxiawu/data/CamVid/trainannot/0006R0_f03630.png'
p171
aS'/home/zhengxiawu/data/CamVid/trainannot/0006R0_f03660.png'
p172
aS'/home/zhengxiawu/data/CamVid/trainannot/0006R0_f03690.png'
p173
aS'/home/zhengxiawu/data/CamVid/trainannot/0006R0_f03720.png'
p174
aS'/home/zhengxiawu/data/CamVid/trainannot/0006R0_f03750.png'
p175
aS'/home/zhengxiawu/data/CamVid/trainannot/0006R0_f03780.png'
p176
aS'/home/zhengxiawu/data/CamVid/trainannot/0006R0_f03810.png'
p177
aS'/home/zhengxiawu/data/CamVid/trainannot/0006R0_f03840.png'
p178
aS'/home/zhengxiawu/data/CamVid/trainannot/0006R0_f03870.png'
p179
aS'/home/zhengxiawu/data/CamVid/trainannot/0006R0_f03900.png'
p180
aS'/home/zhengxiawu/data/CamVid/trainannot/0006R0_f03930.png'
p181
aS'/home/zhengxiawu/data/CamVid/trainannot/0016E5_00390.png'
p182
aS'/home/zhengxiawu/data/CamVid/trainannot/0016E5_00420.png'
p183
aS'/home/zhengxiawu/data/CamVid/trainannot/0016E5_00450.png'
p184
aS'/home/zhengxiawu/data/CamVid/trainannot/0016E5_00480.png'
p185
aS'/home/zhengxiawu/data/CamVid/trainannot/0016E5_00510.png'
p186
aS'/home/zhengxiawu/data/CamVid/trainannot/0016E5_00540.png'
p187
aS'/home/zhengxiawu/data/CamVid/trainannot/0016E5_00570.png'
p188
aS'/home/zhengxiawu/data/CamVid/trainannot/0016E5_00600.png'
p189
aS'/home/zhengxiawu/data/CamVid/trainannot/0016E5_00630.png'
p190
aS'/home/zhengxiawu/data/CamVid/trainannot/0016E5_00660.png'
p191
aS'/home/zhengxiawu/data/CamVid/trainannot/0016E5_00690.png'
p192
aS'/home/zhengxiawu/data/CamVid/trainannot/0016E5_00720.png'
p193
aS'/home/zhengxiawu/data/CamVid/trainannot/0016E5_00750.png'
p194
aS'/home/zhengxiawu/data/CamVid/trainannot/0016E5_00780.png'
p195
aS'/home/zhengxiawu/data/CamVid/trainannot/0016E5_00810.png'
p196
aS'/home/zhengxiawu/data/CamVid/trainannot/0016E5_00840.png'
p197
aS'/home/zhengxiawu/data/CamVid/trainannot/0016E5_00870.png'
p198
aS'/home/zhengxiawu/data/CamVid/trainannot/0016E5_00901.png'
p199
aS'/home/zhengxiawu/data/CamVid/trainannot/0016E5_00930.png'
p200
aS'/home/zhengxiawu/data/CamVid/trainannot/0016E5_00960.png'
p201
aS'/home/zhengxiawu/data/CamVid/trainannot/0016E5_00990.png'
p202
aS'/home/zhengxiawu/data/CamVid/trainannot/0016E5_01020.png'
p203
aS'/home/zhengxiawu/data/CamVid/trainannot/0016E5_01050.png'
p204
aS'/home/zhengxiawu/data/CamVid/trainannot/0016E5_01080.png'
p205
aS'/home/zhengxiawu/data/CamVid/trainannot/0016E5_01110.png'
p206
aS'/home/zhengxiawu/data/CamVid/trainannot/0016E5_01140.png'
p207
aS'/home/zhengxiawu/data/CamVid/trainannot/0016E5_01170.png'
p208
aS'/home/zhengxiawu/data/CamVid/trainannot/0016E5_01200.png'
p209
aS'/home/zhengxiawu/data/CamVid/trainannot/0016E5_01230.png'
p210
aS'/home/zhengxiawu/data/CamVid/trainannot/0016E5_01260.png'
p211
aS'/home/zhengxiawu/data/CamVid/trainannot/0016E5_01290.png'
p212
aS'/home/zhengxiawu/data/CamVid/trainannot/0016E5_01320.png'
p213
aS'/home/zhengxiawu/data/CamVid/trainannot/0016E5_01350.png'
p214
aS'/home/zhengxiawu/data/CamVid/trainannot/0016E5_01380.png'
p215
aS'/home/zhengxiawu/data/CamVid/trainannot/0016E5_01410.png'
p216
aS'/home/zhengxiawu/data/CamVid/trainannot/0016E5_01440.png'
p217
aS'/home/zhengxiawu/data/CamVid/trainannot/0016E5_01470.png'
p218
aS'/home/zhengxiawu/data/CamVid/trainannot/0016E5_01500.png'
p219
aS'/home/zhengxiawu/data/CamVid/trainannot/0016E5_01530.png'
p220
aS'/home/zhengxiawu/data/CamVid/trainannot/0016E5_01560.png'
p221
aS'/home/zhengxiawu/data/CamVid/trainannot/0016E5_01590.png'
p222
aS'/home/zhengxiawu/data/CamVid/trainannot/0016E5_01620.png'
p223
aS'/home/zhengxiawu/data/CamVid/trainannot/0016E5_01650.png'
p224
aS'/home/zhengxiawu/data/CamVid/trainannot/0016E5_01680.png'
p225
aS'/home/zhengxiawu/data/CamVid/trainannot/0016E5_01710.png'
p226
aS'/home/zhengxiawu/data/CamVid/trainannot/0016E5_01740.png'
p227
aS'/home/zhengxiawu/data/CamVid/trainannot/0016E5_01770.png'
p228
aS'/home/zhengxiawu/data/CamVid/trainannot/0016E5_01800.png'
p229
aS'/home/zhengxiawu/data/CamVid/trainannot/0016E5_01830.png'
p230
aS'/home/zhengxiawu/data/CamVid/trainannot/0016E5_01860.png'
p231
aS'/home/zhengxiawu/data/CamVid/trainannot/0016E5_01890.png'
p232
aS'/home/zhengxiawu/data/CamVid/trainannot/0016E5_01920.png'
p233
aS'/home/zhengxiawu/data/CamVid/trainannot/0016E5_01950.png'
p234
aS'/home/zhengxiawu/data/CamVid/trainannot/0016E5_01980.png'
p235
aS'/home/zhengxiawu/data/CamVid/trainannot/0016E5_02010.png'
p236
aS'/home/zhengxiawu/data/CamVid/trainannot/0016E5_02040.png'
p237
aS'/home/zhengxiawu/data/CamVid/trainannot/0016E5_02070.png'
p238
aS'/home/zhengxiawu/data/CamVid/trainannot/0016E5_02100.png'
p239
aS'/home/zhengxiawu/data/CamVid/trainannot/0016E5_02130.png'
p240
aS'/home/zhengxiawu/data/CamVid/trainannot/0016E5_02160.png'
p241
aS'/home/zhengxiawu/data/CamVid/trainannot/0016E5_02190.png'
p242
aS'/home/zhengxiawu/data/CamVid/trainannot/0016E5_02220.png'
p243
aS'/home/zhengxiawu/data/CamVid/trainannot/0016E5_02250.png'
p244
aS'/home/zhengxiawu/data/CamVid/trainannot/0016E5_02280.png'
p245
aS'/home/zhengxiawu/data/CamVid/trainannot/0016E5_02310.png'
p246
aS'/home/zhengxiawu/data/CamVid/trainannot/0016E5_02340.png'
p247
aS'/home/zhengxiawu/data/CamVid/trainannot/0016E5_02370.png'
p248
aS'/home/zhengxiawu/data/CamVid/trainannot/0016E5_02400.png'
p249
aS'/home/zhengxiawu/data/CamVid/trainannot/0016E5_04350.png'
p250
aS'/home/zhengxiawu/data/CamVid/trainannot/0016E5_04380.png'
p251
aS'/home/zhengxiawu/data/CamVid/trainannot/0016E5_04410.png'
p252
aS'/home/zhengxiawu/data/CamVid/trainannot/0016E5_04440.png'
p253
aS'/home/zhengxiawu/data/CamVid/trainannot/0016E5_04470.png'
p254
aS'/home/zhengxiawu/data/CamVid/trainannot/0016E5_04500.png'
p255
aS'/home/zhengxiawu/data/CamVid/trainannot/0016E5_04530.png'
p256
aS'/home/zhengxiawu/data/CamVid/trainannot/0016E5_04560.png'
p257
aS'/home/zhengxiawu/data/CamVid/trainannot/0016E5_04590.png'
p258
aS'/home/zhengxiawu/data/CamVid/trainannot/0016E5_04620.png'
p259
aS'/home/zhengxiawu/data/CamVid/trainannot/0016E5_04650.png'
p260
aS'/home/zhengxiawu/data/CamVid/trainannot/0016E5_04680.png'
p261
aS'/home/zhengxiawu/data/CamVid/trainannot/0016E5_04710.png'
p262
aS'/home/zhengxiawu/data/CamVid/trainannot/0016E5_04740.png'
p263
aS'/home/zhengxiawu/data/CamVid/trainannot/0016E5_04770.png'
p264
aS'/home/zhengxiawu/data/CamVid/trainannot/0016E5_04800.png'
p265
aS'/home/zhengxiawu/data/CamVid/trainannot/0016E5_04830.png'
p266
aS'/home/zhengxiawu/data/CamVid/trainannot/0016E5_04860.png'
p267
aS'/home/zhengxiawu/data/CamVid/trainannot/0016E5_04890.png'
p268
aS'/home/zhengxiawu/data/CamVid/trainannot/0016E5_04920.png'
p269
aS'/home/zhengxiawu/data/CamVid/trainannot/0016E5_04950.png'
p270
aS'/home/zhengxiawu/data/CamVid/trainannot/0016E5_04980.png'
p271
aS'/home/zhengxiawu/data/CamVid/trainannot/0016E5_05010.png'
p272
aS'/home/zhengxiawu/data/CamVid/trainannot/0016E5_05040.png'
p273
aS'/home/zhengxiawu/data/CamVid/trainannot/0016E5_05070.png'
p274
aS'/home/zhengxiawu/data/CamVid/trainannot/0016E5_05100.png'
p275
aS'/home/zhengxiawu/data/CamVid/trainannot/0016E5_05130.png'
p276
aS'/home/zhengxiawu/data/CamVid/trainannot/0016E5_05160.png'
p277
aS'/home/zhengxiawu/data/CamVid/trainannot/0016E5_05190.png'
p278
aS'/home/zhengxiawu/data/CamVid/trainannot/0016E5_05220.png'
p279
aS'/home/zhengxiawu/data/CamVid/trainannot/0016E5_05250.png'
p280
aS'/home/zhengxiawu/data/CamVid/trainannot/0016E5_05280.png'
p281
aS'/home/zhengxiawu/data/CamVid/trainannot/0016E5_05310.png'
p282
aS'/home/zhengxiawu/data/CamVid/trainannot/0016E5_05340.png'
p283
aS'/home/zhengxiawu/data/CamVid/trainannot/0016E5_05370.png'
p284
aS'/home/zhengxiawu/data/CamVid/trainannot/0016E5_05400.png'
p285
aS'/home/zhengxiawu/data/CamVid/trainannot/0016E5_05430.png'
p286
aS'/home/zhengxiawu/data/CamVid/trainannot/0016E5_05460.png'
p287
aS'/home/zhengxiawu/data/CamVid/trainannot/0016E5_05490.png'
p288
aS'/home/zhengxiawu/data/CamVid/trainannot/0016E5_05520.png'
p289
aS'/home/zhengxiawu/data/CamVid/trainannot/0016E5_05550.png'
p290
aS'/home/zhengxiawu/data/CamVid/trainannot/0016E5_05580.png'
p291
aS'/home/zhengxiawu/data/CamVid/trainannot/0016E5_05610.png'
p292
aS'/home/zhengxiawu/data/CamVid/trainannot/0016E5_05640.png'
p293
aS'/home/zhengxiawu/data/CamVid/trainannot/0016E5_05670.png'
p294
aS'/home/zhengxiawu/data/CamVid/trainannot/0016E5_05700.png'
p295
aS'/home/zhengxiawu/data/CamVid/trainannot/0016E5_05730.png'
p296
aS'/home/zhengxiawu/data/CamVid/trainannot/0016E5_05760.png'
p297
aS'/home/zhengxiawu/data/CamVid/trainannot/0016E5_05790.png'
p298
aS'/home/zhengxiawu/data/CamVid/trainannot/0016E5_05820.png'
p299
aS'/home/zhengxiawu/data/CamVid/trainannot/0016E5_05850.png'
p300
aS'/home/zhengxiawu/data/CamVid/trainannot/0016E5_05880.png'
p301
aS'/home/zhengxiawu/data/CamVid/trainannot/0016E5_05910.png'
p302
aS'/home/zhengxiawu/data/CamVid/trainannot/0016E5_05940.png'
p303
aS'/home/zhengxiawu/data/CamVid/trainannot/0016E5_05970.png'
p304
aS'/home/zhengxiawu/data/CamVid/trainannot/0016E5_06000.png'
p305
aS'/home/zhengxiawu/data/CamVid/trainannot/0016E5_06030.png'
p306
aS'/home/zhengxiawu/data/CamVid/trainannot/0016E5_06060.png'
p307
aS'/home/zhengxiawu/data/CamVid/trainannot/0016E5_06090.png'
p308
aS'/home/zhengxiawu/data/CamVid/trainannot/0016E5_06120.png'
p309
aS'/home/zhengxiawu/data/CamVid/trainannot/0016E5_06150.png'
p310
aS'/home/zhengxiawu/data/CamVid/trainannot/0016E5_06180.png'
p311
aS'/home/zhengxiawu/data/CamVid/trainannot/0016E5_06210.png'
p312
aS'/home/zhengxiawu/data/CamVid/trainannot/0016E5_06240.png'
p313
aS'/home/zhengxiawu/data/CamVid/trainannot/0016E5_06270.png'
p314
aS'/home/zhengxiawu/data/CamVid/trainannot/0016E5_06300.png'
p315
aS'/home/zhengxiawu/data/CamVid/trainannot/0016E5_06330.png'
p316
aS'/home/zhengxiawu/data/CamVid/trainannot/0016E5_06360.png'
p317
aS'/home/zhengxiawu/data/CamVid/trainannot/0016E5_06390.png'
p318
aS'/home/zhengxiawu/data/CamVid/trainannot/0016E5_06420.png'
p319
aS'/home/zhengxiawu/data/CamVid/trainannot/0016E5_06450.png'
p320
aS'/home/zhengxiawu/data/CamVid/trainannot/0016E5_06480.png'
p321
aS'/home/zhengxiawu/data/CamVid/trainannot/0016E5_06510.png'
p322
aS'/home/zhengxiawu/data/CamVid/trainannot/0016E5_06540.png'
p323
aS'/home/zhengxiawu/data/CamVid/trainannot/0016E5_06570.png'
p324
aS'/home/zhengxiawu/data/CamVid/trainannot/0016E5_06600.png'
p325
aS'/home/zhengxiawu/data/CamVid/trainannot/0016E5_06630.png'
p326
aS'/home/zhengxiawu/data/CamVid/trainannot/0016E5_06660.png'
p327
aS'/home/zhengxiawu/data/CamVid/trainannot/0016E5_06690.png'
p328
aS'/home/zhengxiawu/data/CamVid/trainannot/0016E5_06720.png'
p329
aS'/home/zhengxiawu/data/CamVid/trainannot/0016E5_06750.png'
p330
aS'/home/zhengxiawu/data/CamVid/trainannot/0016E5_06780.png'
p331
aS'/home/zhengxiawu/data/CamVid/trainannot/0016E5_06810.png'
p332
aS'/home/zhengxiawu/data/CamVid/trainannot/0016E5_06840.png'
p333
aS'/home/zhengxiawu/data/CamVid/trainannot/0016E5_06870.png'
p334
aS'/home/zhengxiawu/data/CamVid/trainannot/0016E5_06900.png'
p335
aS'/home/zhengxiawu/data/CamVid/trainannot/0016E5_06930.png'
p336
aS'/home/zhengxiawu/data/CamVid/trainannot/0016E5_06960.png'
p337
aS'/home/zhengxiawu/data/CamVid/trainannot/0016E5_06990.png'
p338
aS'/home/zhengxiawu/data/CamVid/trainannot/0016E5_07020.png'
p339
aS'/home/zhengxiawu/data/CamVid/trainannot/0016E5_07050.png'
p340
aS'/home/zhengxiawu/data/CamVid/trainannot/0016E5_07080.png'
p341
aS'/home/zhengxiawu/data/CamVid/trainannot/0016E5_07110.png'
p342
aS'/home/zhengxiawu/data/CamVid/trainannot/0016E5_07140.png'
p343
aS'/home/zhengxiawu/data/CamVid/trainannot/0016E5_07170.png'
p344
aS'/home/zhengxiawu/data/CamVid/trainannot/0016E5_07200.png'
p345
aS'/home/zhengxiawu/data/CamVid/trainannot/0016E5_07230.png'
p346
aS'/home/zhengxiawu/data/CamVid/trainannot/0016E5_07260.png'
p347
aS'/home/zhengxiawu/data/CamVid/trainannot/0016E5_07290.png'
p348
aS'/home/zhengxiawu/data/CamVid/trainannot/0016E5_07320.png'
p349
aS'/home/zhengxiawu/data/CamVid/trainannot/0016E5_07350.png'
p350
aS'/home/zhengxiawu/data/CamVid/trainannot/0016E5_07380.png'
p351
aS'/home/zhengxiawu/data/CamVid/trainannot/0016E5_07410.png'
p352
aS'/home/zhengxiawu/data/CamVid/trainannot/0016E5_07440.png'
p353
aS'/home/zhengxiawu/data/CamVid/trainannot/0016E5_07470.png'
p354
aS'/home/zhengxiawu/data/CamVid/trainannot/0016E5_07500.png'
p355
aS'/home/zhengxiawu/data/CamVid/trainannot/0016E5_07530.png'
p356
aS'/home/zhengxiawu/data/CamVid/trainannot/0016E5_07560.png'
p357
aS'/home/zhengxiawu/data/CamVid/trainannot/0016E5_07590.png'
p358
aS'/home/zhengxiawu/data/CamVid/trainannot/0016E5_07620.png'
p359
aS'/home/zhengxiawu/data/CamVid/trainannot/0016E5_07650.png'
p360
aS'/home/zhengxiawu/data/CamVid/trainannot/0016E5_07680.png'
p361
aS'/home/zhengxiawu/data/CamVid/trainannot/0016E5_07710.png'
p362
aS'/home/zhengxiawu/data/CamVid/trainannot/0016E5_07740.png'
p363
aS'/home/zhengxiawu/data/CamVid/trainannot/0016E5_07770.png'
p364
aS'/home/zhengxiawu/data/CamVid/trainannot/0016E5_07800.png'
p365
aS'/home/zhengxiawu/data/CamVid/trainannot/0016E5_07830.png'
p366
aS'/home/zhengxiawu/data/CamVid/trainannot/0016E5_07860.png'
p367
aS'/home/zhengxiawu/data/CamVid/trainannot/0016E5_07890.png'
p368
aS'/home/zhengxiawu/data/CamVid/trainannot/0016E5_07920.png'
p369
aS'/home/zhengxiawu/data/CamVid/trainannot/0016E5_08190.png'
p370
aS'/home/zhengxiawu/data/CamVid/trainannot/0016E5_08220.png'
p371
aS'/home/zhengxiawu/data/CamVid/trainannot/0016E5_08250.png'
p372
aS'/home/zhengxiawu/data/CamVid/trainannot/0016E5_08280.png'
p373
aS'/home/zhengxiawu/data/CamVid/trainannot/0016E5_08310.png'
p374
aS'/home/zhengxiawu/data/CamVid/trainannot/0016E5_08340.png'
p375
aS'/home/zhengxiawu/data/CamVid/trainannot/0016E5_08370.png'
p376
aS'/home/zhengxiawu/data/CamVid/trainannot/0016E5_08400.png'
p377
aS'/home/zhengxiawu/data/CamVid/trainannot/0016E5_08430.png'
p378
aS'/home/zhengxiawu/data/CamVid/trainannot/0016E5_08460.png'
p379
aS'/home/zhengxiawu/data/CamVid/trainannot/0016E5_08490.png'
p380
aS'/home/zhengxiawu/data/CamVid/trainannot/0016E5_08520.png'
p381
aS'/home/zhengxiawu/data/CamVid/trainannot/0016E5_08550.png'
p382
aS'/home/zhengxiawu/data/CamVid/trainannot/0016E5_08580.png'
p383
aS'/home/zhengxiawu/data/CamVid/trainannot/0016E5_08610.png'
p384
aS'/home/zhengxiawu/data/CamVid/trainannot/0016E5_08640.png'
p385
asS'valAnnot'
p386
(lp387
S'/home/zhengxiawu/data/CamVid/testannot/0001TP_008550.png'
p388
aS'/home/zhengxiawu/data/CamVid/testannot/0001TP_008580.png'
p389
aS'/home/zhengxiawu/data/CamVid/testannot/0001TP_008610.png'
p390
aS'/home/zhengxiawu/data/CamVid/testannot/0001TP_008640.png'
p391
aS'/home/zhengxiawu/data/CamVid/testannot/0001TP_008670.png'
p392
aS'/home/zhengxiawu/data/CamVid/testannot/0001TP_008700.png'
p393
aS'/home/zhengxiawu/data/CamVid/testannot/0001TP_008730.png'
p394
aS'/home/zhengxiawu/data/CamVid/testannot/0001TP_008760.png'
p395
aS'/home/zhengxiawu/data/CamVid/testannot/0001TP_008790.png'
p396
aS'/home/zhengxiawu/data/CamVid/testannot/0001TP_008820.png'
p397
aS'/home/zhengxiawu/data/CamVid/testannot/0001TP_008850.png'
p398
aS'/home/zhengxiawu/data/CamVid/testannot/0001TP_008880.png'
p399
aS'/home/zhengxiawu/data/CamVid/testannot/0001TP_008910.png'
p400
aS'/home/zhengxiawu/data/CamVid/testannot/0001TP_008940.png'
p401
aS'/home/zhengxiawu/data/CamVid/testannot/0001TP_008970.png'
p402
aS'/home/zhengxiawu/data/CamVid/testannot/0001TP_009000.png'
p403
aS'/home/zhengxiawu/data/CamVid/testannot/0001TP_009030.png'
p404
aS'/home/zhengxiawu/data/CamVid/testannot/0001TP_009060.png'
p405
aS'/home/zhengxiawu/data/CamVid/testannot/0001TP_009090.png'
p406
aS'/home/zhengxiawu/data/CamVid/testannot/0001TP_009120.png'
p407
aS'/home/zhengxiawu/data/CamVid/testannot/0001TP_009150.png'
p408
aS'/home/zhengxiawu/data/CamVid/testannot/0001TP_009180.png'
p409
aS'/home/zhengxiawu/data/CamVid/testannot/0001TP_009210.png'
p410
aS'/home/zhengxiawu/data/CamVid/testannot/0001TP_009240.png'
p411
aS'/home/zhengxiawu/data/CamVid/testannot/0001TP_009270.png'
p412
aS'/home/zhengxiawu/data/CamVid/testannot/0001TP_009300.png'
p413
aS'/home/zhengxiawu/data/CamVid/testannot/0001TP_009330.png'
p414
aS'/home/zhengxiawu/data/CamVid/testannot/0001TP_009360.png'
p415
aS'/home/zhengxiawu/data/CamVid/testannot/0001TP_009390.png'
p416
aS'/home/zhengxiawu/data/CamVid/testannot/0001TP_009420.png'
p417
aS'/home/zhengxiawu/data/CamVid/testannot/0001TP_009450.png'
p418
aS'/home/zhengxiawu/data/CamVid/testannot/0001TP_009480.png'
p419
aS'/home/zhengxiawu/data/CamVid/testannot/0001TP_009510.png'
p420
aS'/home/zhengxiawu/data/CamVid/testannot/0001TP_009540.png'
p421
aS'/home/zhengxiawu/data/CamVid/testannot/0001TP_009570.png'
p422
aS'/home/zhengxiawu/data/CamVid/testannot/0001TP_009600.png'
p423
aS'/home/zhengxiawu/data/CamVid/testannot/0001TP_009630.png'
p424
aS'/home/zhengxiawu/data/CamVid/testannot/0001TP_009660.png'
p425
aS'/home/zhengxiawu/data/CamVid/testannot/0001TP_009690.png'
p426
aS'/home/zhengxiawu/data/CamVid/testannot/0001TP_009720.png'
p427
aS'/home/zhengxiawu/data/CamVid/testannot/0001TP_009750.png'
p428
aS'/home/zhengxiawu/data/CamVid/testannot/0001TP_009780.png'
p429
aS'/home/zhengxiawu/data/CamVid/testannot/0001TP_009810.png'
p430
aS'/home/zhengxiawu/data/CamVid/testannot/0001TP_009840.png'
p431
aS'/home/zhengxiawu/data/CamVid/testannot/0001TP_009870.png'
p432
aS'/home/zhengxiawu/data/CamVid/testannot/0001TP_009900.png'
p433
aS'/home/zhengxiawu/data/CamVid/testannot/0001TP_009930.png'
p434
aS'/home/zhengxiawu/data/CamVid/testannot/0001TP_009960.png'
p435
aS'/home/zhengxiawu/data/CamVid/testannot/0001TP_009990.png'
p436
aS'/home/zhengxiawu/data/CamVid/testannot/0001TP_010020.png'
p437
aS'/home/zhengxiawu/data/CamVid/testannot/0001TP_010050.png'
p438
aS'/home/zhengxiawu/data/CamVid/testannot/0001TP_010080.png'
p439
aS'/home/zhengxiawu/data/CamVid/testannot/0001TP_010110.png'
p440
aS'/home/zhengxiawu/data/CamVid/testannot/0001TP_010140.png'
p441
aS'/home/zhengxiawu/data/CamVid/testannot/0001TP_010170.png'
p442
aS'/home/zhengxiawu/data/CamVid/testannot/0001TP_010200.png'
p443
aS'/home/zhengxiawu/data/CamVid/testannot/0001TP_010230.png'
p444
aS'/home/zhengxiawu/data/CamVid/testannot/0001TP_010260.png'
p445
aS'/home/zhengxiawu/data/CamVid/testannot/0001TP_010290.png'
p446
aS'/home/zhengxiawu/data/CamVid/testannot/0001TP_010320.png'
p447
aS'/home/zhengxiawu/data/CamVid/testannot/0001TP_010350.png'
p448
aS'/home/zhengxiawu/data/CamVid/testannot/0001TP_010380.png'
p449
aS'/home/zhengxiawu/data/CamVid/testannot/Seq05VD_f00000.png'
p450
aS'/home/zhengxiawu/data/CamVid/testannot/Seq05VD_f00030.png'
p451
aS'/home/zhengxiawu/data/CamVid/testannot/Seq05VD_f00060.png'
p452
aS'/home/zhengxiawu/data/CamVid/testannot/Seq05VD_f00090.png'
p453
aS'/home/zhengxiawu/data/CamVid/testannot/Seq05VD_f00120.png'
p454
aS'/home/zhengxiawu/data/CamVid/testannot/Seq05VD_f00150.png'
p455
aS'/home/zhengxiawu/data/CamVid/testannot/Seq05VD_f00180.png'
p456
aS'/home/zhengxiawu/data/CamVid/testannot/Seq05VD_f00210.png'
p457
aS'/home/zhengxiawu/data/CamVid/testannot/Seq05VD_f00240.png'
p458
aS'/home/zhengxiawu/data/CamVid/testannot/Seq05VD_f00270.png'
p459
aS'/home/zhengxiawu/data/CamVid/testannot/Seq05VD_f00300.png'
p460
aS'/home/zhengxiawu/data/CamVid/testannot/Seq05VD_f00330.png'
p461
aS'/home/zhengxiawu/data/CamVid/testannot/Seq05VD_f00360.png'
p462
aS'/home/zhengxiawu/data/CamVid/testannot/Seq05VD_f00390.png'
p463
aS'/home/zhengxiawu/data/CamVid/testannot/Seq05VD_f00420.png'
p464
aS'/home/zhengxiawu/data/CamVid/testannot/Seq05VD_f00450.png'
p465
aS'/home/zhengxiawu/data/CamVid/testannot/Seq05VD_f00480.png'
p466
aS'/home/zhengxiawu/data/CamVid/testannot/Seq05VD_f00510.png'
p467
aS'/home/zhengxiawu/data/CamVid/testannot/Seq05VD_f00540.png'
p468
aS'/home/zhengxiawu/data/CamVid/testannot/Seq05VD_f00570.png'
p469
aS'/home/zhengxiawu/data/CamVid/testannot/Seq05VD_f00600.png'
p470
aS'/home/zhengxiawu/data/CamVid/testannot/Seq05VD_f00630.png'
p471
aS'/home/zhengxiawu/data/CamVid/testannot/Seq05VD_f00660.png'
p472
aS'/home/zhengxiawu/data/CamVid/testannot/Seq05VD_f00690.png'
p473
aS'/home/zhengxiawu/data/CamVid/testannot/Seq05VD_f00720.png'
p474
aS'/home/zhengxiawu/data/CamVid/testannot/Seq05VD_f00750.png'
p475
aS'/home/zhengxiawu/data/CamVid/testannot/Seq05VD_f00780.png'
p476
aS'/home/zhengxiawu/data/CamVid/testannot/Seq05VD_f00810.png'
p477
aS'/home/zhengxiawu/data/CamVid/testannot/Seq05VD_f00840.png'
p478
aS'/home/zhengxiawu/data/CamVid/testannot/Seq05VD_f00870.png'
p479
aS'/home/zhengxiawu/data/CamVid/testannot/Seq05VD_f00900.png'
p480
aS'/home/zhengxiawu/data/CamVid/testannot/Seq05VD_f00930.png'
p481
aS'/home/zhengxiawu/data/CamVid/testannot/Seq05VD_f00960.png'
p482
aS'/home/zhengxiawu/data/CamVid/testannot/Seq05VD_f00990.png'
p483
aS'/home/zhengxiawu/data/CamVid/testannot/Seq05VD_f01020.png'
p484
aS'/home/zhengxiawu/data/CamVid/testannot/Seq05VD_f01050.png'
p485
aS'/home/zhengxiawu/data/CamVid/testannot/Seq05VD_f01080.png'
p486
aS'/home/zhengxiawu/data/CamVid/testannot/Seq05VD_f01110.png'
p487
aS'/home/zhengxiawu/data/CamVid/testannot/Seq05VD_f01140.png'
p488
aS'/home/zhengxiawu/data/CamVid/testannot/Seq05VD_f01170.png'
p489
aS'/home/zhengxiawu/data/CamVid/testannot/Seq05VD_f01200.png'
p490
aS'/home/zhengxiawu/data/CamVid/testannot/Seq05VD_f01230.png'
p491
aS'/home/zhengxiawu/data/CamVid/testannot/Seq05VD_f01260.png'
p492
aS'/home/zhengxiawu/data/CamVid/testannot/Seq05VD_f01290.png'
p493
aS'/home/zhengxiawu/data/CamVid/testannot/Seq05VD_f01320.png'
p494
aS'/home/zhengxiawu/data/CamVid/testannot/Seq05VD_f01350.png'
p495
aS'/home/zhengxiawu/data/CamVid/testannot/Seq05VD_f01380.png'
p496
aS'/home/zhengxiawu/data/CamVid/testannot/Seq05VD_f01410.png'
p497
aS'/home/zhengxiawu/data/CamVid/testannot/Seq05VD_f01440.png'
p498
aS'/home/zhengxiawu/data/CamVid/testannot/Seq05VD_f01470.png'
p499
aS'/home/zhengxiawu/data/CamVid/testannot/Seq05VD_f01500.png'
p500
aS'/home/zhengxiawu/data/CamVid/testannot/Seq05VD_f01530.png'
p501
aS'/home/zhengxiawu/data/CamVid/testannot/Seq05VD_f01560.png'
p502
aS'/home/zhengxiawu/data/CamVid/testannot/Seq05VD_f01590.png'
p503
aS'/home/zhengxiawu/data/CamVid/testannot/Seq05VD_f01620.png'
p504
aS'/home/zhengxiawu/data/CamVid/testannot/Seq05VD_f01650.png'
p505
aS'/home/zhengxiawu/data/CamVid/testannot/Seq05VD_f01680.png'
p506
aS'/home/zhengxiawu/data/CamVid/testannot/Seq05VD_f01710.png'
p507
aS'/home/zhengxiawu/data/CamVid/testannot/Seq05VD_f01740.png'
p508
aS'/home/zhengxiawu/data/CamVid/testannot/Seq05VD_f01770.png'
p509
aS'/home/zhengxiawu/data/CamVid/testannot/Seq05VD_f01800.png'
p510
aS'/home/zhengxiawu/data/CamVid/testannot/Seq05VD_f01830.png'
p511
aS'/home/zhengxiawu/data/CamVid/testannot/Seq05VD_f01860.png'
p512
aS'/home/zhengxiawu/data/CamVid/testannot/Seq05VD_f01890.png'
p513
aS'/home/zhengxiawu/data/CamVid/testannot/Seq05VD_f01920.png'
p514
aS'/home/zhengxiawu/data/CamVid/testannot/Seq05VD_f01950.png'
p515
aS'/home/zhengxiawu/data/CamVid/testannot/Seq05VD_f01980.png'
p516
aS'/home/zhengxiawu/data/CamVid/testannot/Seq05VD_f02010.png'
p517
aS'/home/zhengxiawu/data/CamVid/testannot/Seq05VD_f02040.png'
p518
aS'/home/zhengxiawu/data/CamVid/testannot/Seq05VD_f02070.png'
p519
aS'/home/zhengxiawu/data/CamVid/testannot/Seq05VD_f02100.png'
p520
aS'/home/zhengxiawu/data/CamVid/testannot/Seq05VD_f02130.png'
p521
aS'/home/zhengxiawu/data/CamVid/testannot/Seq05VD_f02160.png'
p522
aS'/home/zhengxiawu/data/CamVid/testannot/Seq05VD_f02190.png'
p523
aS'/home/zhengxiawu/data/CamVid/testannot/Seq05VD_f02220.png'
p524
aS'/home/zhengxiawu/data/CamVid/testannot/Seq05VD_f02250.png'
p525
aS'/home/zhengxiawu/data/CamVid/testannot/Seq05VD_f02280.png'
p526
aS'/home/zhengxiawu/data/CamVid/testannot/Seq05VD_f02310.png'
p527
aS'/home/zhengxiawu/data/CamVid/testannot/Seq05VD_f02340.png'
p528
aS'/home/zhengxiawu/data/CamVid/testannot/Seq05VD_f02370.png'
p529
aS'/home/zhengxiawu/data/CamVid/testannot/Seq05VD_f02400.png'
p530
aS'/home/zhengxiawu/data/CamVid/testannot/Seq05VD_f02430.png'
p531
aS'/home/zhengxiawu/data/CamVid/testannot/Seq05VD_f02460.png'
p532
aS'/home/zhengxiawu/data/CamVid/testannot/Seq05VD_f02490.png'
p533
aS'/home/zhengxiawu/data/CamVid/testannot/Seq05VD_f02520.png'
p534
aS'/home/zhengxiawu/data/CamVid/testannot/Seq05VD_f02550.png'
p535
aS'/home/zhengxiawu/data/CamVid/testannot/Seq05VD_f02580.png'
p536
aS'/home/zhengxiawu/data/CamVid/testannot/Seq05VD_f02610.png'
p537
aS'/home/zhengxiawu/data/CamVid/testannot/Seq05VD_f02640.png'
p538
aS'/home/zhengxiawu/data/CamVid/testannot/Seq05VD_f02670.png'
p539
aS'/home/zhengxiawu/data/CamVid/testannot/Seq05VD_f02700.png'
p540
aS'/home/zhengxiawu/data/CamVid/testannot/Seq05VD_f02730.png'
p541
aS'/home/zhengxiawu/data/CamVid/testannot/Seq05VD_f02760.png'
p542
aS'/home/zhengxiawu/data/CamVid/testannot/Seq05VD_f02790.png'
p543
aS'/home/zhengxiawu/data/CamVid/testannot/Seq05VD_f02820.png'
p544
aS'/home/zhengxiawu/data/CamVid/testannot/Seq05VD_f02850.png'
p545
aS'/home/zhengxiawu/data/CamVid/testannot/Seq05VD_f02880.png'
p546
aS'/home/zhengxiawu/data/CamVid/testannot/Seq05VD_f02910.png'
p547
aS'/home/zhengxiawu/data/CamVid/testannot/Seq05VD_f02940.png'
p548
aS'/home/zhengxiawu/data/CamVid/testannot/Seq05VD_f02970.png'
p549
aS'/home/zhengxiawu/data/CamVid/testannot/Seq05VD_f03000.png'
p550
aS'/home/zhengxiawu/data/CamVid/testannot/Seq05VD_f03030.png'
p551
aS'/home/zhengxiawu/data/CamVid/testannot/Seq05VD_f03060.png'
p552
aS'/home/zhengxiawu/data/CamVid/testannot/Seq05VD_f03090.png'
p553
aS'/home/zhengxiawu/data/CamVid/testannot/Seq05VD_f03120.png'
p554
aS'/home/zhengxiawu/data/CamVid/testannot/Seq05VD_f03150.png'
p555
aS'/home/zhengxiawu/data/CamVid/testannot/Seq05VD_f03180.png'
p556
aS'/home/zhengxiawu/data/CamVid/testannot/Seq05VD_f03210.png'
p557
aS'/home/zhengxiawu/data/CamVid/testannot/Seq05VD_f03240.png'
p558
aS'/home/zhengxiawu/data/CamVid/testannot/Seq05VD_f03270.png'
p559
aS'/home/zhengxiawu/data/CamVid/testannot/Seq05VD_f03300.png'
p560
aS'/home/zhengxiawu/data/CamVid/testannot/Seq05VD_f03330.png'
p561
aS'/home/zhengxiawu/data/CamVid/testannot/Seq05VD_f03360.png'
p562
aS'/home/zhengxiawu/data/CamVid/testannot/Seq05VD_f03390.png'
p563
aS'/home/zhengxiawu/data/CamVid/testannot/Seq05VD_f03420.png'
p564
aS'/home/zhengxiawu/data/CamVid/testannot/Seq05VD_f03450.png'
p565
aS'/home/zhengxiawu/data/CamVid/testannot/Seq05VD_f03480.png'
p566
aS'/home/zhengxiawu/data/CamVid/testannot/Seq05VD_f03510.png'
p567
aS'/home/zhengxiawu/data/CamVid/testannot/Seq05VD_f03540.png'
p568
aS'/home/zhengxiawu/data/CamVid/testannot/Seq05VD_f03570.png'
p569
aS'/home/zhengxiawu/data/CamVid/testannot/Seq05VD_f03600.png'
p570
aS'/home/zhengxiawu/data/CamVid/testannot/Seq05VD_f03630.png'
p571
aS'/home/zhengxiawu/data/CamVid/testannot/Seq05VD_f03660.png'
p572
aS'/home/zhengxiawu/data/CamVid/testannot/Seq05VD_f03690.png'
p573
aS'/home/zhengxiawu/data/CamVid/testannot/Seq05VD_f03720.png'
p574
aS'/home/zhengxiawu/data/CamVid/testannot/Seq05VD_f03750.png'
p575
aS'/home/zhengxiawu/data/CamVid/testannot/Seq05VD_f03780.png'
p576
aS'/home/zhengxiawu/data/CamVid/testannot/Seq05VD_f03810.png'
p577
aS'/home/zhengxiawu/data/CamVid/testannot/Seq05VD_f03840.png'
p578
aS'/home/zhengxiawu/data/CamVid/testannot/Seq05VD_f03870.png'
p579
aS'/home/zhengxiawu/data/CamVid/testannot/Seq05VD_f03900.png'
p580
aS'/home/zhengxiawu/data/CamVid/testannot/Seq05VD_f03930.png'
p581
aS'/home/zhengxiawu/data/CamVid/testannot/Seq05VD_f03960.png'
p582
aS'/home/zhengxiawu/data/CamVid/testannot/Seq05VD_f03990.png'
p583
aS'/home/zhengxiawu/data/CamVid/testannot/Seq05VD_f04020.png'
p584
aS'/home/zhengxiawu/data/CamVid/testannot/Seq05VD_f04050.png'
p585
aS'/home/zhengxiawu/data/CamVid/testannot/Seq05VD_f04080.png'
p586
aS'/home/zhengxiawu/data/CamVid/testannot/Seq05VD_f04110.png'
p587
aS'/home/zhengxiawu/data/CamVid/testannot/Seq05VD_f04140.png'
p588
aS'/home/zhengxiawu/data/CamVid/testannot/Seq05VD_f04170.png'
p589
aS'/home/zhengxiawu/data/CamVid/testannot/Seq05VD_f04200.png'
p590
aS'/home/zhengxiawu/data/CamVid/testannot/Seq05VD_f04230.png'
p591
aS'/home/zhengxiawu/data/CamVid/testannot/Seq05VD_f04260.png'
p592
aS'/home/zhengxiawu/data/CamVid/testannot/Seq05VD_f04290.png'
p593
aS'/home/zhengxiawu/data/CamVid/testannot/Seq05VD_f04320.png'
p594
aS'/home/zhengxiawu/data/CamVid/testannot/Seq05VD_f04350.png'
p595
aS'/home/zhengxiawu/data/CamVid/testannot/Seq05VD_f04380.png'
p596
aS'/home/zhengxiawu/data/CamVid/testannot/Seq05VD_f04410.png'
p597
aS'/home/zhengxiawu/data/CamVid/testannot/Seq05VD_f04440.png'
p598
aS'/home/zhengxiawu/data/CamVid/testannot/Seq05VD_f04470.png'
p599
aS'/home/zhengxiawu/data/CamVid/testannot/Seq05VD_f04500.png'
p600
aS'/home/zhengxiawu/data/CamVid/testannot/Seq05VD_f04530.png'
p601
aS'/home/zhengxiawu/data/CamVid/testannot/Seq05VD_f04560.png'
p602
aS'/home/zhengxiawu/data/CamVid/testannot/Seq05VD_f04590.png'
p603
aS'/home/zhengxiawu/data/CamVid/testannot/Seq05VD_f04620.png'
p604
aS'/home/zhengxiawu/data/CamVid/testannot/Seq05VD_f04650.png'
p605
aS'/home/zhengxiawu/data/CamVid/testannot/Seq05VD_f04680.png'
p606
aS'/home/zhengxiawu/data/CamVid/testannot/Seq05VD_f04710.png'
p607
aS'/home/zhengxiawu/data/CamVid/testannot/Seq05VD_f04740.png'
p608
aS'/home/zhengxiawu/data/CamVid/testannot/Seq05VD_f04770.png'
p609
aS'/home/zhengxiawu/data/CamVid/testannot/Seq05VD_f04800.png'
p610
aS'/home/zhengxiawu/data/CamVid/testannot/Seq05VD_f04830.png'
p611
aS'/home/zhengxiawu/data/CamVid/testannot/Seq05VD_f04860.png'
p612
aS'/home/zhengxiawu/data/CamVid/testannot/Seq05VD_f04890.png'
p613
aS'/home/zhengxiawu/data/CamVid/testannot/Seq05VD_f04920.png'
p614
aS'/home/zhengxiawu/data/CamVid/testannot/Seq05VD_f04950.png'
p615
aS'/home/zhengxiawu/data/CamVid/testannot/Seq05VD_f04980.png'
p616
aS'/home/zhengxiawu/data/CamVid/testannot/Seq05VD_f05010.png'
p617
aS'/home/zhengxiawu/data/CamVid/testannot/Seq05VD_f05040.png'
p618
aS'/home/zhengxiawu/data/CamVid/testannot/Seq05VD_f05070.png'
p619
aS'/home/zhengxiawu/data/CamVid/testannot/Seq05VD_f05100.png'
p620
asS'trainIm'
p621
(lp622
S'/home/zhengxiawu/data/CamVid/train/0001TP_006690.png'
p623
aS'/home/zhengxiawu/data/CamVid/train/0001TP_006720.png'
p624
aS'/home/zhengxiawu/data/CamVid/train/0001TP_006750.png'
p625
aS'/home/zhengxiawu/data/CamVid/train/0001TP_006780.png'
p626
aS'/home/zhengxiawu/data/CamVid/train/0001TP_006810.png'
p627
aS'/home/zhengxiawu/data/CamVid/train/0001TP_006840.png'
p628
aS'/home/zhengxiawu/data/CamVid/train/0001TP_006870.png'
p629
aS'/home/zhengxiawu/data/CamVid/train/0001TP_006900.png'
p630
aS'/home/zhengxiawu/data/CamVid/train/0001TP_006930.png'
p631
aS'/home/zhengxiawu/data/CamVid/train/0001TP_006960.png'
p632
aS'/home/zhengxiawu/data/CamVid/train/0001TP_006990.png'
p633
aS'/home/zhengxiawu/data/CamVid/train/0001TP_007020.png'
p634
aS'/home/zhengxiawu/data/CamVid/train/0001TP_007050.png'
p635
aS'/home/zhengxiawu/data/CamVid/train/0001TP_007080.png'
p636
aS'/home/zhengxiawu/data/CamVid/train/0001TP_007110.png'
p637
aS'/home/zhengxiawu/data/CamVid/train/0001TP_007140.png'
p638
aS'/home/zhengxiawu/data/CamVid/train/0001TP_007170.png'
p639
aS'/home/zhengxiawu/data/CamVid/train/0001TP_007200.png'
p640
aS'/home/zhengxiawu/data/CamVid/train/0001TP_007230.png'
p641
aS'/home/zhengxiawu/data/CamVid/train/0001TP_007260.png'
p642
aS'/home/zhengxiawu/data/CamVid/train/0001TP_007290.png'
p643
aS'/home/zhengxiawu/data/CamVid/train/0001TP_007320.png'
p644
aS'/home/zhengxiawu/data/CamVid/train/0001TP_007350.png'
p645
aS'/home/zhengxiawu/data/CamVid/train/0001TP_007380.png'
p646
aS'/home/zhengxiawu/data/CamVid/train/0001TP_007410.png'
p647
aS'/home/zhengxiawu/data/CamVid/train/0001TP_007440.png'
p648
aS'/home/zhengxiawu/data/CamVid/train/0001TP_007470.png'
p649
aS'/home/zhengxiawu/data/CamVid/train/0001TP_007500.png'
p650
aS'/home/zhengxiawu/data/CamVid/train/0001TP_007530.png'
p651
aS'/home/zhengxiawu/data/CamVid/train/0001TP_007560.png'
p652
aS'/home/zhengxiawu/data/CamVid/train/0001TP_007590.png'
p653
aS'/home/zhengxiawu/data/CamVid/train/0001TP_007620.png'
p654
aS'/home/zhengxiawu/data/CamVid/train/0001TP_007650.png'
p655
aS'/home/zhengxiawu/data/CamVid/train/0001TP_007680.png'
p656
aS'/home/zhengxiawu/data/CamVid/train/0001TP_007710.png'
p657
aS'/home/zhengxiawu/data/CamVid/train/0001TP_007740.png'
p658
aS'/home/zhengxiawu/data/CamVid/train/0001TP_007770.png'
p659
aS'/home/zhengxiawu/data/CamVid/train/0001TP_007800.png'
p660
aS'/home/zhengxiawu/data/CamVid/train/0001TP_007830.png'
p661
aS'/home/zhengxiawu/data/CamVid/train/0001TP_007860.png'
p662
aS'/home/zhengxiawu/data/CamVid/train/0001TP_007890.png'
p663
aS'/home/zhengxiawu/data/CamVid/train/0001TP_007920.png'
p664
aS'/home/zhengxiawu/data/CamVid/train/0001TP_007950.png'
p665
aS'/home/zhengxiawu/data/CamVid/train/0001TP_007980.png'
p666
aS'/home/zhengxiawu/data/CamVid/train/0001TP_008010.png'
p667
aS'/home/zhengxiawu/data/CamVid/train/0001TP_008040.png'
p668
aS'/home/zhengxiawu/data/CamVid/train/0001TP_008070.png'
p669
aS'/home/zhengxiawu/data/CamVid/train/0001TP_008100.png'
p670
aS'/home/zhengxiawu/data/CamVid/train/0001TP_008130.png'
p671
aS'/home/zhengxiawu/data/CamVid/train/0001TP_008160.png'
p672
aS'/home/zhengxiawu/data/CamVid/train/0001TP_008190.png'
p673
aS'/home/zhengxiawu/data/CamVid/train/0001TP_008220.png'
p674
aS'/home/zhengxiawu/data/CamVid/train/0001TP_008250.png'
p675
aS'/home/zhengxiawu/data/CamVid/train/0001TP_008280.png'
p676
aS'/home/zhengxiawu/data/CamVid/train/0001TP_008310.png'
p677
aS'/home/zhengxiawu/data/CamVid/train/0001TP_008340.png'
p678
aS'/home/zhengxiawu/data/CamVid/train/0001TP_008370.png'
p679
aS'/home/zhengxiawu/data/CamVid/train/0001TP_008400.png'
p680
aS'/home/zhengxiawu/data/CamVid/train/0001TP_008430.png'
p681
aS'/home/zhengxiawu/data/CamVid/train/0001TP_008460.png'
p682
aS'/home/zhengxiawu/data/CamVid/train/0001TP_008490.png'
p683
aS'/home/zhengxiawu/data/CamVid/train/0001TP_008520.png'
p684
aS'/home/zhengxiawu/data/CamVid/train/0006R0_f00930.png'
p685
aS'/home/zhengxiawu/data/CamVid/train/0006R0_f00960.png'
p686
aS'/home/zhengxiawu/data/CamVid/train/0006R0_f00990.png'
p687
aS'/home/zhengxiawu/data/CamVid/train/0006R0_f01020.png'
p688
aS'/home/zhengxiawu/data/CamVid/train/0006R0_f01050.png'
p689
aS'/home/zhengxiawu/data/CamVid/train/0006R0_f01080.png'
p690
aS'/home/zhengxiawu/data/CamVid/train/0006R0_f01110.png'
p691
aS'/home/zhengxiawu/data/CamVid/train/0006R0_f01140.png'
p692
aS'/home/zhengxiawu/data/CamVid/train/0006R0_f01170.png'
p693
aS'/home/zhengxiawu/data/CamVid/train/0006R0_f01200.png'
p694
aS'/home/zhengxiawu/data/CamVid/train/0006R0_f01230.png'
p695
aS'/home/zhengxiawu/data/CamVid/train/0006R0_f01260.png'
p696
aS'/home/zhengxiawu/data/CamVid/train/0006R0_f01290.png'
p697
aS'/home/zhengxiawu/data/CamVid/train/0006R0_f01320.png'
p698
aS'/home/zhengxiawu/data/CamVid/train/0006R0_f01350.png'
p699
aS'/home/zhengxiawu/data/CamVid/train/0006R0_f01380.png'
p700
aS'/home/zhengxiawu/data/CamVid/train/0006R0_f01410.png'
p701
aS'/home/zhengxiawu/data/CamVid/train/0006R0_f01440.png'
p702
aS'/home/zhengxiawu/data/CamVid/train/0006R0_f01470.png'
p703
aS'/home/zhengxiawu/data/CamVid/train/0006R0_f01500.png'
p704
aS'/home/zhengxiawu/data/CamVid/train/0006R0_f01530.png'
p705
aS'/home/zhengxiawu/data/CamVid/train/0006R0_f01560.png'
p706
aS'/home/zhengxiawu/data/CamVid/train/0006R0_f01590.png'
p707
aS'/home/zhengxiawu/data/CamVid/train/0006R0_f01620.png'
p708
aS'/home/zhengxiawu/data/CamVid/train/0006R0_f01650.png'
p709
aS'/home/zhengxiawu/data/CamVid/train/0006R0_f01680.png'
p710
aS'/home/zhengxiawu/data/CamVid/train/0006R0_f01710.png'
p711
aS'/home/zhengxiawu/data/CamVid/train/0006R0_f01740.png'
p712
aS'/home/zhengxiawu/data/CamVid/train/0006R0_f01770.png'
p713
aS'/home/zhengxiawu/data/CamVid/train/0006R0_f01800.png'
p714
aS'/home/zhengxiawu/data/CamVid/train/0006R0_f01830.png'
p715
aS'/home/zhengxiawu/data/CamVid/train/0006R0_f01860.png'
p716
aS'/home/zhengxiawu/data/CamVid/train/0006R0_f01890.png'
p717
aS'/home/zhengxiawu/data/CamVid/train/0006R0_f01920.png'
p718
aS'/home/zhengxiawu/data/CamVid/train/0006R0_f01950.png'
p719
aS'/home/zhengxiawu/data/CamVid/train/0006R0_f01980.png'
p720
aS'/home/zhengxiawu/data/CamVid/train/0006R0_f02010.png'
p721
aS'/home/zhengxiawu/data/CamVid/train/0006R0_f02040.png'
p722
aS'/home/zhengxiawu/data/CamVid/train/0006R0_f02070.png'
p723
aS'/home/zhengxiawu/data/CamVid/train/0006R0_f02100.png'
p724
aS'/home/zhengxiawu/data/CamVid/train/0006R0_f02130.png'
p725
aS'/home/zhengxiawu/data/CamVid/train/0006R0_f02160.png'
p726
aS'/home/zhengxiawu/data/CamVid/train/0006R0_f02190.png'
p727
aS'/home/zhengxiawu/data/CamVid/train/0006R0_f02220.png'
p728
aS'/home/zhengxiawu/data/CamVid/train/0006R0_f02250.png'
p729
aS'/home/zhengxiawu/data/CamVid/train/0006R0_f02280.png'
p730
aS'/home/zhengxiawu/data/CamVid/train/0006R0_f02310.png'
p731
aS'/home/zhengxiawu/data/CamVid/train/0006R0_f02340.png'
p732
aS'/home/zhengxiawu/data/CamVid/train/0006R0_f02370.png'
p733
aS'/home/zhengxiawu/data/CamVid/train/0006R0_f02400.png'
p734
aS'/home/zhengxiawu/data/CamVid/train/0006R0_f02430.png'
p735
aS'/home/zhengxiawu/data/CamVid/train/0006R0_f02460.png'
p736
aS'/home/zhengxiawu/data/CamVid/train/0006R0_f02490.png'
p737
aS'/home/zhengxiawu/data/CamVid/train/0006R0_f02520.png'
p738
aS'/home/zhengxiawu/data/CamVid/train/0006R0_f02550.png'
p739
aS'/home/zhengxiawu/data/CamVid/train/0006R0_f02580.png'
p740
aS'/home/zhengxiawu/data/CamVid/train/0006R0_f02610.png'
p741
aS'/home/zhengxiawu/data/CamVid/train/0006R0_f02640.png'
p742
aS'/home/zhengxiawu/data/CamVid/train/0006R0_f02670.png'
p743
aS'/home/zhengxiawu/data/CamVid/train/0006R0_f02700.png'
p744
aS'/home/zhengxiawu/data/CamVid/train/0006R0_f02730.png'
p745
aS'/home/zhengxiawu/data/CamVid/train/0006R0_f02760.png'
p746
aS'/home/zhengxiawu/data/CamVid/train/0006R0_f02790.png'
p747
aS'/home/zhengxiawu/data/CamVid/train/0006R0_f02820.png'
p748
aS'/home/zhengxiawu/data/CamVid/train/0006R0_f02850.png'
p749
aS'/home/zhengxiawu/data/CamVid/train/0006R0_f02880.png'
p750
aS'/home/zhengxiawu/data/CamVid/train/0006R0_f02910.png'
p751
aS'/home/zhengxiawu/data/CamVid/train/0006R0_f02940.png'
p752
aS'/home/zhengxiawu/data/CamVid/train/0006R0_f02970.png'
p753
aS'/home/zhengxiawu/data/CamVid/train/0006R0_f03000.png'
p754
aS'/home/zhengxiawu/data/CamVid/train/0006R0_f03030.png'
p755
aS'/home/zhengxiawu/data/CamVid/train/0006R0_f03060.png'
p756
aS'/home/zhengxiawu/data/CamVid/train/0006R0_f03090.png'
p757
aS'/home/zhengxiawu/data/CamVid/train/0006R0_f03120.png'
p758
aS'/home/zhengxiawu/data/CamVid/train/0006R0_f03150.png'
p759
aS'/home/zhengxiawu/data/CamVid/train/0006R0_f03180.png'
p760
aS'/home/zhengxiawu/data/CamVid/train/0006R0_f03210.png'
p761
aS'/home/zhengxiawu/data/CamVid/train/0006R0_f03240.png'
p762
aS'/home/zhengxiawu/data/CamVid/train/0006R0_f03270.png'
p763
aS'/home/zhengxiawu/data/CamVid/train/0006R0_f03300.png'
p764
aS'/home/zhengxiawu/data/CamVid/train/0006R0_f03330.png'
p765
aS'/home/zhengxiawu/data/CamVid/train/0006R0_f03360.png'
p766
aS'/home/zhengxiawu/data/CamVid/train/0006R0_f03390.png'
p767
aS'/home/zhengxiawu/data/CamVid/train/0006R0_f03420.png'
p768
aS'/home/zhengxiawu/data/CamVid/train/0006R0_f03450.png'
p769
aS'/home/zhengxiawu/data/CamVid/train/0006R0_f03480.png'
p770
aS'/home/zhengxiawu/data/CamVid/train/0006R0_f03510.png'
p771
aS'/home/zhengxiawu/data/CamVid/train/0006R0_f03540.png'
p772
aS'/home/zhengxiawu/data/CamVid/train/0006R0_f03570.png'
p773
aS'/home/zhengxiawu/data/CamVid/train/0006R0_f03600.png'
p774
aS'/home/zhengxiawu/data/CamVid/train/0006R0_f03630.png'
p775
aS'/home/zhengxiawu/data/CamVid/train/0006R0_f03660.png'
p776
aS'/home/zhengxiawu/data/CamVid/train/0006R0_f03690.png'
p777
aS'/home/zhengxiawu/data/CamVid/train/0006R0_f03720.png'
p778
aS'/home/zhengxiawu/data/CamVid/train/0006R0_f03750.png'
p779
aS'/home/zhengxiawu/data/CamVid/train/0006R0_f03780.png'
p780
aS'/home/zhengxiawu/data/CamVid/train/0006R0_f03810.png'
p781
aS'/home/zhengxiawu/data/CamVid/train/0006R0_f03840.png'
p782
aS'/home/zhengxiawu/data/CamVid/train/0006R0_f03870.png'
p783
aS'/home/zhengxiawu/data/CamVid/train/0006R0_f03900.png'
p784
aS'/home/zhengxiawu/data/CamVid/train/0006R0_f03930.png'
p785
aS'/home/zhengxiawu/data/CamVid/train/0016E5_00390.png'
p786
aS'/home/zhengxiawu/data/CamVid/train/0016E5_00420.png'
p787
aS'/home/zhengxiawu/data/CamVid/train/0016E5_00450.png'
p788
aS'/home/zhengxiawu/data/CamVid/train/0016E5_00480.png'
p789
aS'/home/zhengxiawu/data/CamVid/train/0016E5_00510.png'
p790
aS'/home/zhengxiawu/data/CamVid/train/0016E5_00540.png'
p791
aS'/home/zhengxiawu/data/CamVid/train/0016E5_00570.png'
p792
aS'/home/zhengxiawu/data/CamVid/train/0016E5_00600.png'
p793
aS'/home/zhengxiawu/data/CamVid/train/0016E5_00630.png'
p794
aS'/home/zhengxiawu/data/CamVid/train/0016E5_00660.png'
p795
aS'/home/zhengxiawu/data/CamVid/train/0016E5_00690.png'
p796
aS'/home/zhengxiawu/data/CamVid/train/0016E5_00720.png'
p797
aS'/home/zhengxiawu/data/CamVid/train/0016E5_00750.png'
p798
aS'/home/zhengxiawu/data/CamVid/train/0016E5_00780.png'
p799
aS'/home/zhengxiawu/data/CamVid/train/0016E5_00810.png'
p800
aS'/home/zhengxiawu/data/CamVid/train/0016E5_00840.png'
p801
aS'/home/zhengxiawu/data/CamVid/train/0016E5_00870.png'
p802
aS'/home/zhengxiawu/data/CamVid/train/0016E5_00901.png'
p803
aS'/home/zhengxiawu/data/CamVid/train/0016E5_00930.png'
p804
aS'/home/zhengxiawu/data/CamVid/train/0016E5_00960.png'
p805
aS'/home/zhengxiawu/data/CamVid/train/0016E5_00990.png'
p806
aS'/home/zhengxiawu/data/CamVid/train/0016E5_01020.png'
p807
aS'/home/zhengxiawu/data/CamVid/train/0016E5_01050.png'
p808
aS'/home/zhengxiawu/data/CamVid/train/0016E5_01080.png'
p809
aS'/home/zhengxiawu/data/CamVid/train/0016E5_01110.png'
p810
aS'/home/zhengxiawu/data/CamVid/train/0016E5_01140.png'
p811
aS'/home/zhengxiawu/data/CamVid/train/0016E5_01170.png'
p812
aS'/home/zhengxiawu/data/CamVid/train/0016E5_01200.png'
p813
aS'/home/zhengxiawu/data/CamVid/train/0016E5_01230.png'
p814
aS'/home/zhengxiawu/data/CamVid/train/0016E5_01260.png'
p815
aS'/home/zhengxiawu/data/CamVid/train/0016E5_01290.png'
p816
aS'/home/zhengxiawu/data/CamVid/train/0016E5_01320.png'
p817
aS'/home/zhengxiawu/data/CamVid/train/0016E5_01350.png'
p818
aS'/home/zhengxiawu/data/CamVid/train/0016E5_01380.png'
p819
aS'/home/zhengxiawu/data/CamVid/train/0016E5_01410.png'
p820
aS'/home/zhengxiawu/data/CamVid/train/0016E5_01440.png'
p821
aS'/home/zhengxiawu/data/CamVid/train/0016E5_01470.png'
p822
aS'/home/zhengxiawu/data/CamVid/train/0016E5_01500.png'
p823
aS'/home/zhengxiawu/data/CamVid/train/0016E5_01530.png'
p824
aS'/home/zhengxiawu/data/CamVid/train/0016E5_01560.png'
p825
aS'/home/zhengxiawu/data/CamVid/train/0016E5_01590.png'
p826
aS'/home/zhengxiawu/data/CamVid/train/0016E5_01620.png'
p827
aS'/home/zhengxiawu/data/CamVid/train/0016E5_01650.png'
p828
aS'/home/zhengxiawu/data/CamVid/train/0016E5_01680.png'
p829
aS'/home/zhengxiawu/data/CamVid/train/0016E5_01710.png'
p830
aS'/home/zhengxiawu/data/CamVid/train/0016E5_01740.png'
p831
aS'/home/zhengxiawu/data/CamVid/train/0016E5_01770.png'
p832
aS'/home/zhengxiawu/data/CamVid/train/0016E5_01800.png'
p833
aS'/home/zhengxiawu/data/CamVid/train/0016E5_01830.png'
p834
aS'/home/zhengxiawu/data/CamVid/train/0016E5_01860.png'
p835
aS'/home/zhengxiawu/data/CamVid/train/0016E5_01890.png'
p836
aS'/home/zhengxiawu/data/CamVid/train/0016E5_01920.png'
p837
aS'/home/zhengxiawu/data/CamVid/train/0016E5_01950.png'
p838
aS'/home/zhengxiawu/data/CamVid/train/0016E5_01980.png'
p839
aS'/home/zhengxiawu/data/CamVid/train/0016E5_02010.png'
p840
aS'/home/zhengxiawu/data/CamVid/train/0016E5_02040.png'
p841
aS'/home/zhengxiawu/data/CamVid/train/0016E5_02070.png'
p842
aS'/home/zhengxiawu/data/CamVid/train/0016E5_02100.png'
p843
aS'/home/zhengxiawu/data/CamVid/train/0016E5_02130.png'
p844
aS'/home/zhengxiawu/data/CamVid/train/0016E5_02160.png'
p845
aS'/home/zhengxiawu/data/CamVid/train/0016E5_02190.png'
p846
aS'/home/zhengxiawu/data/CamVid/train/0016E5_02220.png'
p847
aS'/home/zhengxiawu/data/CamVid/train/0016E5_02250.png'
p848
aS'/home/zhengxiawu/data/CamVid/train/0016E5_02280.png'
p849
aS'/home/zhengxiawu/data/CamVid/train/0016E5_02310.png'
p850
aS'/home/zhengxiawu/data/CamVid/train/0016E5_02340.png'
p851
aS'/home/zhengxiawu/data/CamVid/train/0016E5_02370.png'
p852
aS'/home/zhengxiawu/data/CamVid/train/0016E5_02400.png'
p853
aS'/home/zhengxiawu/data/CamVid/train/0016E5_04350.png'
p854
aS'/home/zhengxiawu/data/CamVid/train/0016E5_04380.png'
p855
aS'/home/zhengxiawu/data/CamVid/train/0016E5_04410.png'
p856
aS'/home/zhengxiawu/data/CamVid/train/0016E5_04440.png'
p857
aS'/home/zhengxiawu/data/CamVid/train/0016E5_04470.png'
p858
aS'/home/zhengxiawu/data/CamVid/train/0016E5_04500.png'
p859
aS'/home/zhengxiawu/data/CamVid/train/0016E5_04530.png'
p860
aS'/home/zhengxiawu/data/CamVid/train/0016E5_04560.png'
p861
aS'/home/zhengxiawu/data/CamVid/train/0016E5_04590.png'
p862
aS'/home/zhengxiawu/data/CamVid/train/0016E5_04620.png'
p863
aS'/home/zhengxiawu/data/CamVid/train/0016E5_04650.png'
p864
aS'/home/zhengxiawu/data/CamVid/train/0016E5_04680.png'
p865
aS'/home/zhengxiawu/data/CamVid/train/0016E5_04710.png'
p866
aS'/home/zhengxiawu/data/CamVid/train/0016E5_04740.png'
p867
aS'/home/zhengxiawu/data/CamVid/train/0016E5_04770.png'
p868
aS'/home/zhengxiawu/data/CamVid/train/0016E5_04800.png'
p869
aS'/home/zhengxiawu/data/CamVid/train/0016E5_04830.png'
p870
aS'/home/zhengxiawu/data/CamVid/train/0016E5_04860.png'
p871
aS'/home/zhengxiawu/data/CamVid/train/0016E5_04890.png'
p872
aS'/home/zhengxiawu/data/CamVid/train/0016E5_04920.png'
p873
aS'/home/zhengxiawu/data/CamVid/train/0016E5_04950.png'
p874
aS'/home/zhengxiawu/data/CamVid/train/0016E5_04980.png'
p875
aS'/home/zhengxiawu/data/CamVid/train/0016E5_05010.png'
p876
aS'/home/zhengxiawu/data/CamVid/train/0016E5_05040.png'
p877
aS'/home/zhengxiawu/data/CamVid/train/0016E5_05070.png'
p878
aS'/home/zhengxiawu/data/CamVid/train/0016E5_05100.png'
p879
aS'/home/zhengxiawu/data/CamVid/train/0016E5_05130.png'
p880
aS'/home/zhengxiawu/data/CamVid/train/0016E5_05160.png'
p881
aS'/home/zhengxiawu/data/CamVid/train/0016E5_05190.png'
p882
aS'/home/zhengxiawu/data/CamVid/train/0016E5_05220.png'
p883
aS'/home/zhengxiawu/data/CamVid/train/0016E5_05250.png'
p884
aS'/home/zhengxiawu/data/CamVid/train/0016E5_05280.png'
p885
aS'/home/zhengxiawu/data/CamVid/train/0016E5_05310.png'
p886
aS'/home/zhengxiawu/data/CamVid/train/0016E5_05340.png'
p887
aS'/home/zhengxiawu/data/CamVid/train/0016E5_05370.png'
p888
aS'/home/zhengxiawu/data/CamVid/train/0016E5_05400.png'
p889
aS'/home/zhengxiawu/data/CamVid/train/0016E5_05430.png'
p890
aS'/home/zhengxiawu/data/CamVid/train/0016E5_05460.png'
p891
aS'/home/zhengxiawu/data/CamVid/train/0016E5_05490.png'
p892
aS'/home/zhengxiawu/data/CamVid/train/0016E5_05520.png'
p893
aS'/home/zhengxiawu/data/CamVid/train/0016E5_05550.png'
p894
aS'/home/zhengxiawu/data/CamVid/train/0016E5_05580.png'
p895
aS'/home/zhengxiawu/data/CamVid/train/0016E5_05610.png'
p896
aS'/home/zhengxiawu/data/CamVid/train/0016E5_05640.png'
p897
aS'/home/zhengxiawu/data/CamVid/train/0016E5_05670.png'
p898
aS'/home/zhengxiawu/data/CamVid/train/0016E5_05700.png'
p899
aS'/home/zhengxiawu/data/CamVid/train/0016E5_05730.png'
p900
aS'/home/zhengxiawu/data/CamVid/train/0016E5_05760.png'
p901
aS'/home/zhengxiawu/data/CamVid/train/0016E5_05790.png'
p902
aS'/home/zhengxiawu/data/CamVid/train/0016E5_05820.png'
p903
aS'/home/zhengxiawu/data/CamVid/train/0016E5_05850.png'
p904
aS'/home/zhengxiawu/data/CamVid/train/0016E5_05880.png'
p905
aS'/home/zhengxiawu/data/CamVid/train/0016E5_05910.png'
p906
aS'/home/zhengxiawu/data/CamVid/train/0016E5_05940.png'
p907
aS'/home/zhengxiawu/data/CamVid/train/0016E5_05970.png'
p908
aS'/home/zhengxiawu/data/CamVid/train/0016E5_06000.png'
p909
aS'/home/zhengxiawu/data/CamVid/train/0016E5_06030.png'
p910
aS'/home/zhengxiawu/data/CamVid/train/0016E5_06060.png'
p911
aS'/home/zhengxiawu/data/CamVid/train/0016E5_06090.png'
p912
aS'/home/zhengxiawu/data/CamVid/train/0016E5_06120.png'
p913
aS'/home/zhengxiawu/data/CamVid/train/0016E5_06150.png'
p914
aS'/home/zhengxiawu/data/CamVid/train/0016E5_06180.png'
p915
aS'/home/zhengxiawu/data/CamVid/train/0016E5_06210.png'
p916
aS'/home/zhengxiawu/data/CamVid/train/0016E5_06240.png'
p917
aS'/home/zhengxiawu/data/CamVid/train/0016E5_06270.png'
p918
aS'/home/zhengxiawu/data/CamVid/train/0016E5_06300.png'
p919
aS'/home/zhengxiawu/data/CamVid/train/0016E5_06330.png'
p920
aS'/home/zhengxiawu/data/CamVid/train/0016E5_06360.png'
p921
aS'/home/zhengxiawu/data/CamVid/train/0016E5_06390.png'
p922
aS'/home/zhengxiawu/data/CamVid/train/0016E5_06420.png'
p923
aS'/home/zhengxiawu/data/CamVid/train/0016E5_06450.png'
p924
aS'/home/zhengxiawu/data/CamVid/train/0016E5_06480.png'
p925
aS'/home/zhengxiawu/data/CamVid/train/0016E5_06510.png'
p926
aS'/home/zhengxiawu/data/CamVid/train/0016E5_06540.png'
p927
aS'/home/zhengxiawu/data/CamVid/train/0016E5_06570.png'
p928
aS'/home/zhengxiawu/data/CamVid/train/0016E5_06600.png'
p929
aS'/home/zhengxiawu/data/CamVid/train/0016E5_06630.png'
p930
aS'/home/zhengxiawu/data/CamVid/train/0016E5_06660.png'
p931
aS'/home/zhengxiawu/data/CamVid/train/0016E5_06690.png'
p932
aS'/home/zhengxiawu/data/CamVid/train/0016E5_06720.png'
p933
aS'/home/zhengxiawu/data/CamVid/train/0016E5_06750.png'
p934
aS'/home/zhengxiawu/data/CamVid/train/0016E5_06780.png'
p935
aS'/home/zhengxiawu/data/CamVid/train/0016E5_06810.png'
p936
aS'/home/zhengxiawu/data/CamVid/train/0016E5_06840.png'
p937
aS'/home/zhengxiawu/data/CamVid/train/0016E5_06870.png'
p938
aS'/home/zhengxiawu/data/CamVid/train/0016E5_06900.png'
p939
aS'/home/zhengxiawu/data/CamVid/train/0016E5_06930.png'
p940
aS'/home/zhengxiawu/data/CamVid/train/0016E5_06960.png'
p941
aS'/home/zhengxiawu/data/CamVid/train/0016E5_06990.png'
p942
aS'/home/zhengxiawu/data/CamVid/train/0016E5_07020.png'
p943
aS'/home/zhengxiawu/data/CamVid/train/0016E5_07050.png'
p944
aS'/home/zhengxiawu/data/CamVid/train/0016E5_07080.png'
p945
aS'/home/zhengxiawu/data/CamVid/train/0016E5_07110.png'
p946
aS'/home/zhengxiawu/data/CamVid/train/0016E5_07140.png'
p947
aS'/home/zhengxiawu/data/CamVid/train/0016E5_07170.png'
p948
aS'/home/zhengxiawu/data/CamVid/train/0016E5_07200.png'
p949
aS'/home/zhengxiawu/data/CamVid/train/0016E5_07230.png'
p950
aS'/home/zhengxiawu/data/CamVid/train/0016E5_07260.png'
p951
aS'/home/zhengxiawu/data/CamVid/train/0016E5_07290.png'
p952
aS'/home/zhengxiawu/data/CamVid/train/0016E5_07320.png'
p953
aS'/home/zhengxiawu/data/CamVid/train/0016E5_07350.png'
p954
aS'/home/zhengxiawu/data/CamVid/train/0016E5_07380.png'
p955
aS'/home/zhengxiawu/data/CamVid/train/0016E5_07410.png'
p956
aS'/home/zhengxiawu/data/CamVid/train/0016E5_07440.png'
p957
aS'/home/zhengxiawu/data/CamVid/train/0016E5_07470.png'
p958
aS'/home/zhengxiawu/data/CamVid/train/0016E5_07500.png'
p959
aS'/home/zhengxiawu/data/CamVid/train/0016E5_07530.png'
p960
aS'/home/zhengxiawu/data/CamVid/train/0016E5_07560.png'
p961
aS'/home/zhengxiawu/data/CamVid/train/0016E5_07590.png'
p962
aS'/home/zhengxiawu/data/CamVid/train/0016E5_07620.png'
p963
aS'/home/zhengxiawu/data/CamVid/train/0016E5_07650.png'
p964
aS'/home/zhengxiawu/data/CamVid/train/0016E5_07680.png'
p965
aS'/home/zhengxiawu/data/CamVid/train/0016E5_07710.png'
p966
aS'/home/zhengxiawu/data/CamVid/train/0016E5_07740.png'
p967
aS'/home/zhengxiawu/data/CamVid/train/0016E5_07770.png'
p968
aS'/home/zhengxiawu/data/CamVid/train/0016E5_07800.png'
p969
aS'/home/zhengxiawu/data/CamVid/train/0016E5_07830.png'
p970
aS'/home/zhengxiawu/data/CamVid/train/0016E5_07860.png'
p971
aS'/home/zhengxiawu/data/CamVid/train/0016E5_07890.png'
p972
aS'/home/zhengxiawu/data/CamVid/train/0016E5_07920.png'
p973
aS'/home/zhengxiawu/data/CamVid/train/0016E5_08190.png'
p974
aS'/home/zhengxiawu/data/CamVid/train/0016E5_08220.png'
p975
aS'/home/zhengxiawu/data/CamVid/train/0016E5_08250.png'
p976
aS'/home/zhengxiawu/data/CamVid/train/0016E5_08280.png'
p977
aS'/home/zhengxiawu/data/CamVid/train/0016E5_08310.png'
p978
aS'/home/zhengxiawu/data/CamVid/train/0016E5_08340.png'
p979
aS'/home/zhengxiawu/data/CamVid/train/0016E5_08370.png'
p980
aS'/home/zhengxiawu/data/CamVid/train/0016E5_08400.png'
p981
aS'/home/zhengxiawu/data/CamVid/train/0016E5_08430.png'
p982
aS'/home/zhengxiawu/data/CamVid/train/0016E5_08460.png'
p983
aS'/home/zhengxiawu/data/CamVid/train/0016E5_08490.png'
p984
aS'/home/zhengxiawu/data/CamVid/train/0016E5_08520.png'
p985
aS'/home/zhengxiawu/data/CamVid/train/0016E5_08550.png'
p986
aS'/home/zhengxiawu/data/CamVid/train/0016E5_08580.png'
p987
aS'/home/zhengxiawu/data/CamVid/train/0016E5_08610.png'
p988
aS'/home/zhengxiawu/data/CamVid/train/0016E5_08640.png'
p989
asS'classWeights'
p990
g2
(g3
(I0
tp991
g5
tp992
Rp993
(I1
(I12
tp994
g12
I00
S'[\xc3\x85@\x85\xf7_@\x07\xa5\x18A\xc1\xf47@\x9a\xd8\xec@7\xc2\xb1@\xd0\x0f\x17A\xfd\xa7\x17A\xf3L\xd9@\x85@\x1eA\xc4U#A\x8a\x11\xf5@'
p995
tp996
bsS'valIm'
p997
(lp998
S'/home/zhengxiawu/data/CamVid/test/0001TP_008550.png'
p999
aS'/home/zhengxiawu/data/CamVid/test/0001TP_008580.png'
p1000
aS'/home/zhengxiawu/data/CamVid/test/0001TP_008610.png'
p1001
aS'/home/zhengxiawu/data/CamVid/test/0001TP_008640.png'
p1002
aS'/home/zhengxiawu/data/CamVid/test/0001TP_008670.png'
p1003
aS'/home/zhengxiawu/data/CamVid/test/0001TP_008700.png'
p1004
aS'/home/zhengxiawu/data/CamVid/test/0001TP_008730.png'
p1005
aS'/home/zhengxiawu/data/CamVid/test/0001TP_008760.png'
p1006
aS'/home/zhengxiawu/data/CamVid/test/0001TP_008790.png'
p1007
aS'/home/zhengxiawu/data/CamVid/test/0001TP_008820.png'
p1008
aS'/home/zhengxiawu/data/CamVid/test/0001TP_008850.png'
p1009
aS'/home/zhengxiawu/data/CamVid/test/0001TP_008880.png'
p1010
aS'/home/zhengxiawu/data/CamVid/test/0001TP_008910.png'
p1011
aS'/home/zhengxiawu/data/CamVid/test/0001TP_008940.png'
p1012
aS'/home/zhengxiawu/data/CamVid/test/0001TP_008970.png'
p1013
aS'/home/zhengxiawu/data/CamVid/test/0001TP_009000.png'
p1014
aS'/home/zhengxiawu/data/CamVid/test/0001TP_009030.png'
p1015
aS'/home/zhengxiawu/data/CamVid/test/0001TP_009060.png'
p1016
aS'/home/zhengxiawu/data/CamVid/test/0001TP_009090.png'
p1017
aS'/home/zhengxiawu/data/CamVid/test/0001TP_009120.png'
p1018
aS'/home/zhengxiawu/data/CamVid/test/0001TP_009150.png'
p1019
aS'/home/zhengxiawu/data/CamVid/test/0001TP_009180.png'
p1020
aS'/home/zhengxiawu/data/CamVid/test/0001TP_009210.png'
p1021
aS'/home/zhengxiawu/data/CamVid/test/0001TP_009240.png'
p1022
aS'/home/zhengxiawu/data/CamVid/test/0001TP_009270.png'
p1023
aS'/home/zhengxiawu/data/CamVid/test/0001TP_009300.png'
p1024
aS'/home/zhengxiawu/data/CamVid/test/0001TP_009330.png'
p1025
aS'/home/zhengxiawu/data/CamVid/test/0001TP_009360.png'
p1026
aS'/home/zhengxiawu/data/CamVid/test/0001TP_009390.png'
p1027
aS'/home/zhengxiawu/data/CamVid/test/0001TP_009420.png'
p1028
aS'/home/zhengxiawu/data/CamVid/test/0001TP_009450.png'
p1029
aS'/home/zhengxiawu/data/CamVid/test/0001TP_009480.png'
p1030
aS'/home/zhengxiawu/data/CamVid/test/0001TP_009510.png'
p1031
aS'/home/zhengxiawu/data/CamVid/test/0001TP_009540.png'
p1032
aS'/home/zhengxiawu/data/CamVid/test/0001TP_009570.png'
p1033
aS'/home/zhengxiawu/data/CamVid/test/0001TP_009600.png'
p1034
aS'/home/zhengxiawu/data/CamVid/test/0001TP_009630.png'
p1035
aS'/home/zhengxiawu/data/CamVid/test/0001TP_009660.png'
p1036
aS'/home/zhengxiawu/data/CamVid/test/0001TP_009690.png'
p1037
aS'/home/zhengxiawu/data/CamVid/test/0001TP_009720.png'
p1038
aS'/home/zhengxiawu/data/CamVid/test/0001TP_009750.png'
p1039
aS'/home/zhengxiawu/data/CamVid/test/0001TP_009780.png'
p1040
aS'/home/zhengxiawu/data/CamVid/test/0001TP_009810.png'
p1041
aS'/home/zhengxiawu/data/CamVid/test/0001TP_009840.png'
p1042
aS'/home/zhengxiawu/data/CamVid/test/0001TP_009870.png'
p1043
aS'/home/zhengxiawu/data/CamVid/test/0001TP_009900.png'
p1044
aS'/home/zhengxiawu/data/CamVid/test/0001TP_009930.png'
p1045
aS'/home/zhengxiawu/data/CamVid/test/0001TP_009960.png'
p1046
aS'/home/zhengxiawu/data/CamVid/test/0001TP_009990.png'
p1047
aS'/home/zhengxiawu/data/CamVid/test/0001TP_010020.png'
p1048
aS'/home/zhengxiawu/data/CamVid/test/0001TP_010050.png'
p1049
aS'/home/zhengxiawu/data/CamVid/test/0001TP_010080.png'
p1050
aS'/home/zhengxiawu/data/CamVid/test/0001TP_010110.png'
p1051
aS'/home/zhengxiawu/data/CamVid/test/0001TP_010140.png'
p1052
aS'/home/zhengxiawu/data/CamVid/test/0001TP_010170.png'
p1053
aS'/home/zhengxiawu/data/CamVid/test/0001TP_010200.png'
p1054
aS'/home/zhengxiawu/data/CamVid/test/0001TP_010230.png'
p1055
aS'/home/zhengxiawu/data/CamVid/test/0001TP_010260.png'
p1056
aS'/home/zhengxiawu/data/CamVid/test/0001TP_010290.png'
p1057
aS'/home/zhengxiawu/data/CamVid/test/0001TP_010320.png'
p1058
aS'/home/zhengxiawu/data/CamVid/test/0001TP_010350.png'
p1059
aS'/home/zhengxiawu/data/CamVid/test/0001TP_010380.png'
p1060
aS'/home/zhengxiawu/data/CamVid/test/Seq05VD_f00000.png'
p1061
aS'/home/zhengxiawu/data/CamVid/test/Seq05VD_f00030.png'
p1062
aS'/home/zhengxiawu/data/CamVid/test/Seq05VD_f00060.png'
p1063
aS'/home/zhengxiawu/data/CamVid/test/Seq05VD_f00090.png'
p1064
aS'/home/zhengxiawu/data/CamVid/test/Seq05VD_f00120.png'
p1065
aS'/home/zhengxiawu/data/CamVid/test/Seq05VD_f00150.png'
p1066
aS'/home/zhengxiawu/data/CamVid/test/Seq05VD_f00180.png'
p1067
aS'/home/zhengxiawu/data/CamVid/test/Seq05VD_f00210.png'
p1068
aS'/home/zhengxiawu/data/CamVid/test/Seq05VD_f00240.png'
p1069
aS'/home/zhengxiawu/data/CamVid/test/Seq05VD_f00270.png'
p1070
aS'/home/zhengxiawu/data/CamVid/test/Seq05VD_f00300.png'
p1071
aS'/home/zhengxiawu/data/CamVid/test/Seq05VD_f00330.png'
p1072
aS'/home/zhengxiawu/data/CamVid/test/Seq05VD_f00360.png'
p1073
aS'/home/zhengxiawu/data/CamVid/test/Seq05VD_f00390.png'
p1074
aS'/home/zhengxiawu/data/CamVid/test/Seq05VD_f00420.png'
p1075
aS'/home/zhengxiawu/data/CamVid/test/Seq05VD_f00450.png'
p1076
aS'/home/zhengxiawu/data/CamVid/test/Seq05VD_f00480.png'
p1077
aS'/home/zhengxiawu/data/CamVid/test/Seq05VD_f00510.png'
p1078
aS'/home/zhengxiawu/data/CamVid/test/Seq05VD_f00540.png'
p1079
aS'/home/zhengxiawu/data/CamVid/test/Seq05VD_f00570.png'
p1080
aS'/home/zhengxiawu/data/CamVid/test/Seq05VD_f00600.png'
p1081
aS'/home/zhengxiawu/data/CamVid/test/Seq05VD_f00630.png'
p1082
aS'/home/zhengxiawu/data/CamVid/test/Seq05VD_f00660.png'
p1083
aS'/home/zhengxiawu/data/CamVid/test/Seq05VD_f00690.png'
p1084
aS'/home/zhengxiawu/data/CamVid/test/Seq05VD_f00720.png'
p1085
aS'/home/zhengxiawu/data/CamVid/test/Seq05VD_f00750.png'
p1086
aS'/home/zhengxiawu/data/CamVid/test/Seq05VD_f00780.png'
p1087
aS'/home/zhengxiawu/data/CamVid/test/Seq05VD_f00810.png'
p1088
aS'/home/zhengxiawu/data/CamVid/test/Seq05VD_f00840.png'
p1089
aS'/home/zhengxiawu/data/CamVid/test/Seq05VD_f00870.png'
p1090
aS'/home/zhengxiawu/data/CamVid/test/Seq05VD_f00900.png'
p1091
aS'/home/zhengxiawu/data/CamVid/test/Seq05VD_f00930.png'
p1092
aS'/home/zhengxiawu/data/CamVid/test/Seq05VD_f00960.png'
p1093
aS'/home/zhengxiawu/data/CamVid/test/Seq05VD_f00990.png'
p1094
aS'/home/zhengxiawu/data/CamVid/test/Seq05VD_f01020.png'
p1095
aS'/home/zhengxiawu/data/CamVid/test/Seq05VD_f01050.png'
p1096
aS'/home/zhengxiawu/data/CamVid/test/Seq05VD_f01080.png'
p1097
aS'/home/zhengxiawu/data/CamVid/test/Seq05VD_f01110.png'
p1098
aS'/home/zhengxiawu/data/CamVid/test/Seq05VD_f01140.png'
p1099
aS'/home/zhengxiawu/data/CamVid/test/Seq05VD_f01170.png'
p1100
aS'/home/zhengxiawu/data/CamVid/test/Seq05VD_f01200.png'
p1101
aS'/home/zhengxiawu/data/CamVid/test/Seq05VD_f01230.png'
p1102
aS'/home/zhengxiawu/data/CamVid/test/Seq05VD_f01260.png'
p1103
aS'/home/zhengxiawu/data/CamVid/test/Seq05VD_f01290.png'
p1104
aS'/home/zhengxiawu/data/CamVid/test/Seq05VD_f01320.png'
p1105
aS'/home/zhengxiawu/data/CamVid/test/Seq05VD_f01350.png'
p1106
aS'/home/zhengxiawu/data/CamVid/test/Seq05VD_f01380.png'
p1107
aS'/home/zhengxiawu/data/CamVid/test/Seq05VD_f01410.png'
p1108
aS'/home/zhengxiawu/data/CamVid/test/Seq05VD_f01440.png'
p1109
aS'/home/zhengxiawu/data/CamVid/test/Seq05VD_f01470.png'
p1110
aS'/home/zhengxiawu/data/CamVid/test/Seq05VD_f01500.png'
p1111
aS'/home/zhengxiawu/data/CamVid/test/Seq05VD_f01530.png'
p1112
aS'/home/zhengxiawu/data/CamVid/test/Seq05VD_f01560.png'
p1113
aS'/home/zhengxiawu/data/CamVid/test/Seq05VD_f01590.png'
p1114
aS'/home/zhengxiawu/data/CamVid/test/Seq05VD_f01620.png'
p1115
aS'/home/zhengxiawu/data/CamVid/test/Seq05VD_f01650.png'
p1116
aS'/home/zhengxiawu/data/CamVid/test/Seq05VD_f01680.png'
p1117
aS'/home/zhengxiawu/data/CamVid/test/Seq05VD_f01710.png'
p1118
aS'/home/zhengxiawu/data/CamVid/test/Seq05VD_f01740.png'
p1119
aS'/home/zhengxiawu/data/CamVid/test/Seq05VD_f01770.png'
p1120
aS'/home/zhengxiawu/data/CamVid/test/Seq05VD_f01800.png'
p1121
aS'/home/zhengxiawu/data/CamVid/test/Seq05VD_f01830.png'
p1122
aS'/home/zhengxiawu/data/CamVid/test/Seq05VD_f01860.png'
p1123
aS'/home/zhengxiawu/data/CamVid/test/Seq05VD_f01890.png'
p1124
aS'/home/zhengxiawu/data/CamVid/test/Seq05VD_f01920.png'
p1125
aS'/home/zhengxiawu/data/CamVid/test/Seq05VD_f01950.png'
p1126
aS'/home/zhengxiawu/data/CamVid/test/Seq05VD_f01980.png'
p1127
aS'/home/zhengxiawu/data/CamVid/test/Seq05VD_f02010.png'
p1128
aS'/home/zhengxiawu/data/CamVid/test/Seq05VD_f02040.png'
p1129
aS'/home/zhengxiawu/data/CamVid/test/Seq05VD_f02070.png'
p1130
aS'/home/zhengxiawu/data/CamVid/test/Seq05VD_f02100.png'
p1131
aS'/home/zhengxiawu/data/CamVid/test/Seq05VD_f02130.png'
p1132
aS'/home/zhengxiawu/data/CamVid/test/Seq05VD_f02160.png'
p1133
aS'/home/zhengxiawu/data/CamVid/test/Seq05VD_f02190.png'
p1134
aS'/home/zhengxiawu/data/CamVid/test/Seq05VD_f02220.png'
p1135
aS'/home/zhengxiawu/data/CamVid/test/Seq05VD_f02250.png'
p1136
aS'/home/zhengxiawu/data/CamVid/test/Seq05VD_f02280.png'
p1137
aS'/home/zhengxiawu/data/CamVid/test/Seq05VD_f02310.png'
p1138
aS'/home/zhengxiawu/data/CamVid/test/Seq05VD_f02340.png'
p1139
aS'/home/zhengxiawu/data/CamVid/test/Seq05VD_f02370.png'
p1140
aS'/home/zhengxiawu/data/CamVid/test/Seq05VD_f02400.png'
p1141
aS'/home/zhengxiawu/data/CamVid/test/Seq05VD_f02430.png'
p1142
aS'/home/zhengxiawu/data/CamVid/test/Seq05VD_f02460.png'
p1143
aS'/home/zhengxiawu/data/CamVid/test/Seq05VD_f02490.png'
p1144
aS'/home/zhengxiawu/data/CamVid/test/Seq05VD_f02520.png'
p1145
aS'/home/zhengxiawu/data/CamVid/test/Seq05VD_f02550.png'
p1146
aS'/home/zhengxiawu/data/CamVid/test/Seq05VD_f02580.png'
p1147
aS'/home/zhengxiawu/data/CamVid/test/Seq05VD_f02610.png'
p1148
aS'/home/zhengxiawu/data/CamVid/test/Seq05VD_f02640.png'
p1149
aS'/home/zhengxiawu/data/CamVid/test/Seq05VD_f02670.png'
p1150
aS'/home/zhengxiawu/data/CamVid/test/Seq05VD_f02700.png'
p1151
aS'/home/zhengxiawu/data/CamVid/test/Seq05VD_f02730.png'
p1152
aS'/home/zhengxiawu/data/CamVid/test/Seq05VD_f02760.png'
p1153
aS'/home/zhengxiawu/data/CamVid/test/Seq05VD_f02790.png'
p1154
aS'/home/zhengxiawu/data/CamVid/test/Seq05VD_f02820.png'
p1155
aS'/home/zhengxiawu/data/CamVid/test/Seq05VD_f02850.png'
p1156
aS'/home/zhengxiawu/data/CamVid/test/Seq05VD_f02880.png'
p1157
aS'/home/zhengxiawu/data/CamVid/test/Seq05VD_f02910.png'
p1158
aS'/home/zhengxiawu/data/CamVid/test/Seq05VD_f02940.png'
p1159
aS'/home/zhengxiawu/data/CamVid/test/Seq05VD_f02970.png'
p1160
aS'/home/zhengxiawu/data/CamVid/test/Seq05VD_f03000.png'
p1161
aS'/home/zhengxiawu/data/CamVid/test/Seq05VD_f03030.png'
p1162
aS'/home/zhengxiawu/data/CamVid/test/Seq05VD_f03060.png'
p1163
aS'/home/zhengxiawu/data/CamVid/test/Seq05VD_f03090.png'
p1164
aS'/home/zhengxiawu/data/CamVid/test/Seq05VD_f03120.png'
p1165
aS'/home/zhengxiawu/data/CamVid/test/Seq05VD_f03150.png'
p1166
aS'/home/zhengxiawu/data/CamVid/test/Seq05VD_f03180.png'
p1167
aS'/home/zhengxiawu/data/CamVid/test/Seq05VD_f03210.png'
p1168
aS'/home/zhengxiawu/data/CamVid/test/Seq05VD_f03240.png'
p1169
aS'/home/zhengxiawu/data/CamVid/test/Seq05VD_f03270.png'
p1170
aS'/home/zhengxiawu/data/CamVid/test/Seq05VD_f03300.png'
p1171
aS'/home/zhengxiawu/data/CamVid/test/Seq05VD_f03330.png'
p1172
aS'/home/zhengxiawu/data/CamVid/test/Seq05VD_f03360.png'
p1173
aS'/home/zhengxiawu/data/CamVid/test/Seq05VD_f03390.png'
p1174
aS'/home/zhengxiawu/data/CamVid/test/Seq05VD_f03420.png'
p1175
aS'/home/zhengxiawu/data/CamVid/test/Seq05VD_f03450.png'
p1176
aS'/home/zhengxiawu/data/CamVid/test/Seq05VD_f03480.png'
p1177
aS'/home/zhengxiawu/data/CamVid/test/Seq05VD_f03510.png'
p1178
aS'/home/zhengxiawu/data/CamVid/test/Seq05VD_f03540.png'
p1179
aS'/home/zhengxiawu/data/CamVid/test/Seq05VD_f03570.png'
p1180
aS'/home/zhengxiawu/data/CamVid/test/Seq05VD_f03600.png'
p1181
aS'/home/zhengxiawu/data/CamVid/test/Seq05VD_f03630.png'
p1182
aS'/home/zhengxiawu/data/CamVid/test/Seq05VD_f03660.png'
p1183
aS'/home/zhengxiawu/data/CamVid/test/Seq05VD_f03690.png'
p1184
aS'/home/zhengxiawu/data/CamVid/test/Seq05VD_f03720.png'
p1185
aS'/home/zhengxiawu/data/CamVid/test/Seq05VD_f03750.png'
p1186
aS'/home/zhengxiawu/data/CamVid/test/Seq05VD_f03780.png'
p1187
aS'/home/zhengxiawu/data/CamVid/test/Seq05VD_f03810.png'
p1188
aS'/home/zhengxiawu/data/CamVid/test/Seq05VD_f03840.png'
p1189
aS'/home/zhengxiawu/data/CamVid/test/Seq05VD_f03870.png'
p1190
aS'/home/zhengxiawu/data/CamVid/test/Seq05VD_f03900.png'
p1191
aS'/home/zhengxiawu/data/CamVid/test/Seq05VD_f03930.png'
p1192
aS'/home/zhengxiawu/data/CamVid/test/Seq05VD_f03960.png'
p1193
aS'/home/zhengxiawu/data/CamVid/test/Seq05VD_f03990.png'
p1194
aS'/home/zhengxiawu/data/CamVid/test/Seq05VD_f04020.png'
p1195
aS'/home/zhengxiawu/data/CamVid/test/Seq05VD_f04050.png'
p1196
aS'/home/zhengxiawu/data/CamVid/test/Seq05VD_f04080.png'
p1197
aS'/home/zhengxiawu/data/CamVid/test/Seq05VD_f04110.png'
p1198
aS'/home/zhengxiawu/data/CamVid/test/Seq05VD_f04140.png'
p1199
aS'/home/zhengxiawu/data/CamVid/test/Seq05VD_f04170.png'
p1200
aS'/home/zhengxiawu/data/CamVid/test/Seq05VD_f04200.png'
p1201
aS'/home/zhengxiawu/data/CamVid/test/Seq05VD_f04230.png'
p1202
aS'/home/zhengxiawu/data/CamVid/test/Seq05VD_f04260.png'
p1203
aS'/home/zhengxiawu/data/CamVid/test/Seq05VD_f04290.png'
p1204
aS'/home/zhengxiawu/data/CamVid/test/Seq05VD_f04320.png'
p1205
aS'/home/zhengxiawu/data/CamVid/test/Seq05VD_f04350.png'
p1206
aS'/home/zhengxiawu/data/CamVid/test/Seq05VD_f04380.png'
p1207
aS'/home/zhengxiawu/data/CamVid/test/Seq05VD_f04410.png'
p1208
aS'/home/zhengxiawu/data/CamVid/test/Seq05VD_f04440.png'
p1209
aS'/home/zhengxiawu/data/CamVid/test/Seq05VD_f04470.png'
p1210
aS'/home/zhengxiawu/data/CamVid/test/Seq05VD_f04500.png'
p1211
aS'/home/zhengxiawu/data/CamVid/test/Seq05VD_f04530.png'
p1212
aS'/home/zhengxiawu/data/CamVid/test/Seq05VD_f04560.png'
p1213
aS'/home/zhengxiawu/data/CamVid/test/Seq05VD_f04590.png'
p1214
aS'/home/zhengxiawu/data/CamVid/test/Seq05VD_f04620.png'
p1215
aS'/home/zhengxiawu/data/CamVid/test/Seq05VD_f04650.png'
p1216
aS'/home/zhengxiawu/data/CamVid/test/Seq05VD_f04680.png'
p1217
aS'/home/zhengxiawu/data/CamVid/test/Seq05VD_f04710.png'
p1218
aS'/home/zhengxiawu/data/CamVid/test/Seq05VD_f04740.png'
p1219
aS'/home/zhengxiawu/data/CamVid/test/Seq05VD_f04770.png'
p1220
aS'/home/zhengxiawu/data/CamVid/test/Seq05VD_f04800.png'
p1221
aS'/home/zhengxiawu/data/CamVid/test/Seq05VD_f04830.png'
p1222
aS'/home/zhengxiawu/data/CamVid/test/Seq05VD_f04860.png'
p1223
aS'/home/zhengxiawu/data/CamVid/test/Seq05VD_f04890.png'
p1224
aS'/home/zhengxiawu/data/CamVid/test/Seq05VD_f04920.png'
p1225
aS'/home/zhengxiawu/data/CamVid/test/Seq05VD_f04950.png'
p1226
aS'/home/zhengxiawu/data/CamVid/test/Seq05VD_f04980.png'
p1227
aS'/home/zhengxiawu/data/CamVid/test/Seq05VD_f05010.png'
p1228
aS'/home/zhengxiawu/data/CamVid/test/Seq05VD_f05040.png'
p1229
aS'/home/zhengxiawu/data/CamVid/test/Seq05VD_f05070.png'
p1230
aS'/home/zhengxiawu/data/CamVid/test/Seq05VD_f05100.png'
p1231
asS'mean'
p1232
g2
(g3
(I0
tp1233
g5
tp1234
Rp1235
(I1
(I3
tp1236
g12
I00
S'\x80\xa9\xdcBZ\xd1\xd8B\x02\x11\xd2B'
p1237
tp1238
bs.